(lp0
ccopy_reg
_reconstructor
p1
(cscanner.scanner
Token
p2
c__builtin__
object
p3
Ntp4
Rp5
(dp6
S'lexeme'
p7
S'BOF'
p8
sS'type'
p9
g8
sbag1
(g2
g3
Ntp10
Rp11
(dp12
g7
S'package'
p13
sg9
S'Keyword'
p14
sbag1
(g2
g3
Ntp15
Rp16
(dp17
g7
S' '
p18
sg9
S'Whitespace'
p19
sbag1
(g2
g3
Ntp20
Rp21
(dp22
g7
S'java'
p23
sg9
S'Identifier'
p24
sbag1
(g2
g3
Ntp25
Rp26
(dp27
g7
S'.'
p28
sg9
S'Separator'
p29
sbag1
(g2
g3
Ntp30
Rp31
(dp32
g7
S'util'
p33
sg9
g24
sbag1
(g2
g3
Ntp34
Rp35
(dp36
g7
S';'
p37
sg9
g29
sbag1
(g2
g3
Ntp38
Rp39
(dp40
g7
S'\n'
p41
sg9
g19
sbag1
(g2
g3
Ntp42
Rp43
(dp44
g7
g41
sg9
g19
sbag1
(g2
g3
Ntp45
Rp46
(dp47
g7
S'public'
p48
sg9
g14
sbag1
(g2
g3
Ntp49
Rp50
(dp51
g7
g18
sg9
g19
sbag1
(g2
g3
Ntp52
Rp53
(dp54
g7
S'class'
p55
sg9
g14
sbag1
(g2
g3
Ntp56
Rp57
(dp58
g7
g18
sg9
g19
sbag1
(g2
g3
Ntp59
Rp60
(dp61
g7
S'Arrays'
p62
sg9
g24
sbag1
(g2
g3
Ntp63
Rp64
(dp65
g7
g18
sg9
g19
sbag1
(g2
g3
Ntp66
Rp67
(dp68
g7
S'{'
p69
sg9
g29
sbag1
(g2
g3
Ntp70
Rp71
(dp72
g7
g41
sg9
g19
sbag1
(g2
g3
Ntp73
Rp74
(dp75
g7
g18
sg9
g19
sbag1
(g2
g3
Ntp76
Rp77
(dp78
g7
g18
sg9
g19
sbag1
(g2
g3
Ntp79
Rp80
(dp81
g7
g18
sg9
g19
sbag1
(g2
g3
Ntp82
Rp83
(dp84
g7
g18
sg9
g19
sbag1
(g2
g3
Ntp85
Rp86
(dp87
g7
S'public'
p88
sg9
g14
sbag1
(g2
g3
Ntp89
Rp90
(dp91
g7
g18
sg9
g19
sbag1
(g2
g3
Ntp92
Rp93
(dp94
g7
S'Arrays'
p95
sg9
g24
sbag1
(g2
g3
Ntp96
Rp97
(dp98
g7
S'('
p99
sg9
g29
sbag1
(g2
g3
Ntp100
Rp101
(dp102
g7
S')'
p103
sg9
g29
sbag1
(g2
g3
Ntp104
Rp105
(dp106
g7
g18
sg9
g19
sbag1
(g2
g3
Ntp107
Rp108
(dp109
g7
g69
sg9
g29
sbag1
(g2
g3
Ntp110
Rp111
(dp112
g7
g41
sg9
g19
sbag1
(g2
g3
Ntp113
Rp114
(dp115
g7
g18
sg9
g19
sbag1
(g2
g3
Ntp116
Rp117
(dp118
g7
g18
sg9
g19
sbag1
(g2
g3
Ntp119
Rp120
(dp121
g7
g18
sg9
g19
sbag1
(g2
g3
Ntp122
Rp123
(dp124
g7
g18
sg9
g19
sbag1
(g2
g3
Ntp125
Rp126
(dp127
g7
S'}'
p128
sg9
g29
sbag1
(g2
g3
Ntp129
Rp130
(dp131
g7
g41
sg9
g19
sbag1
(g2
g3
Ntp132
Rp133
(dp134
g7
g18
sg9
g19
sbag1
(g2
g3
Ntp135
Rp136
(dp137
g7
g18
sg9
g19
sbag1
(g2
g3
Ntp138
Rp139
(dp140
g7
g18
sg9
g19
sbag1
(g2
g3
Ntp141
Rp142
(dp143
g7
g18
sg9
g19
sbag1
(g2
g3
Ntp144
Rp145
(dp146
g7
S'public'
p147
sg9
g14
sbag1
(g2
g3
Ntp148
Rp149
(dp150
g7
g18
sg9
g19
sbag1
(g2
g3
Ntp151
Rp152
(dp153
g7
S'static'
p154
sg9
g14
sbag1
(g2
g3
Ntp155
Rp156
(dp157
g7
g18
sg9
g19
sbag1
(g2
g3
Ntp158
Rp159
(dp160
g7
S'boolean'
p161
sg9
g14
sbag1
(g2
g3
Ntp162
Rp163
(dp164
g7
g18
sg9
g19
sbag1
(g2
g3
Ntp165
Rp166
(dp167
g7
S'equals'
p168
sg9
g24
sbag1
(g2
g3
Ntp169
Rp170
(dp171
g7
g99
sg9
g29
sbag1
(g2
g3
Ntp172
Rp173
(dp174
g7
S'boolean'
p175
sg9
g14
sbag1
(g2
g3
Ntp176
Rp177
(dp178
g7
S'['
p179
sg9
g29
sbag1
(g2
g3
Ntp180
Rp181
(dp182
g7
S']'
p183
sg9
g29
sbag1
(g2
g3
Ntp184
Rp185
(dp186
g7
g18
sg9
g19
sbag1
(g2
g3
Ntp187
Rp188
(dp189
g7
S'a1'
p190
sg9
g24
sbag1
(g2
g3
Ntp191
Rp192
(dp193
g7
S','
p194
sg9
g29
sbag1
(g2
g3
Ntp195
Rp196
(dp197
g7
g18
sg9
g19
sbag1
(g2
g3
Ntp198
Rp199
(dp200
g7
S'boolean'
p201
sg9
g14
sbag1
(g2
g3
Ntp202
Rp203
(dp204
g7
g179
sg9
g29
sbag1
(g2
g3
Ntp205
Rp206
(dp207
g7
g183
sg9
g29
sbag1
(g2
g3
Ntp208
Rp209
(dp210
g7
g18
sg9
g19
sbag1
(g2
g3
Ntp211
Rp212
(dp213
g7
S'a2'
p214
sg9
g24
sbag1
(g2
g3
Ntp215
Rp216
(dp217
g7
g103
sg9
g29
sbag1
(g2
g3
Ntp218
Rp219
(dp220
g7
g18
sg9
g19
sbag1
(g2
g3
Ntp221
Rp222
(dp223
g7
g69
sg9
g29
sbag1
(g2
g3
Ntp224
Rp225
(dp226
g7
g41
sg9
g19
sbag1
(g2
g3
Ntp227
Rp228
(dp229
g7
g18
sg9
g19
sbag1
(g2
g3
Ntp230
Rp231
(dp232
g7
g18
sg9
g19
sbag1
(g2
g3
Ntp233
Rp234
(dp235
g7
g18
sg9
g19
sbag1
(g2
g3
Ntp236
Rp237
(dp238
g7
g18
sg9
g19
sbag1
(g2
g3
Ntp239
Rp240
(dp241
g7
g18
sg9
g19
sbag1
(g2
g3
Ntp242
Rp243
(dp244
g7
g18
sg9
g19
sbag1
(g2
g3
Ntp245
Rp246
(dp247
g7
g18
sg9
g19
sbag1
(g2
g3
Ntp248
Rp249
(dp250
g7
g18
sg9
g19
sbag1
(g2
g3
Ntp251
Rp252
(dp253
g7
S'if'
p254
sg9
g14
sbag1
(g2
g3
Ntp255
Rp256
(dp257
g7
g99
sg9
g29
sbag1
(g2
g3
Ntp258
Rp259
(dp260
g7
S'a1'
p261
sg9
g24
sbag1
(g2
g3
Ntp262
Rp263
(dp264
g7
g28
sg9
g29
sbag1
(g2
g3
Ntp265
Rp266
(dp267
g7
S'length'
p268
sg9
g24
sbag1
(g2
g3
Ntp269
Rp270
(dp271
g7
g18
sg9
g19
sbag1
(g2
g3
Ntp272
Rp273
(dp274
g7
S'!='
p275
sg9
S'Operator'
p276
sbag1
(g2
g3
Ntp277
Rp278
(dp279
g7
g18
sg9
g19
sbag1
(g2
g3
Ntp280
Rp281
(dp282
g7
S'a2'
p283
sg9
g24
sbag1
(g2
g3
Ntp284
Rp285
(dp286
g7
g28
sg9
g29
sbag1
(g2
g3
Ntp287
Rp288
(dp289
g7
S'length'
p290
sg9
g24
sbag1
(g2
g3
Ntp291
Rp292
(dp293
g7
g103
sg9
g29
sbag1
(g2
g3
Ntp294
Rp295
(dp296
g7
g18
sg9
g19
sbag1
(g2
g3
Ntp297
Rp298
(dp299
g7
S'return'
p300
sg9
g14
sbag1
(g2
g3
Ntp301
Rp302
(dp303
g7
g18
sg9
g19
sbag1
(g2
g3
Ntp304
Rp305
(dp306
g7
S'false'
p307
sg9
S'Literal'
p308
sbag1
(g2
g3
Ntp309
Rp310
(dp311
g7
g37
sg9
g29
sbag1
(g2
g3
Ntp312
Rp313
(dp314
g7
g41
sg9
g19
sbag1
(g2
g3
Ntp315
Rp316
(dp317
g7
g18
sg9
g19
sbag1
(g2
g3
Ntp318
Rp319
(dp320
g7
g18
sg9
g19
sbag1
(g2
g3
Ntp321
Rp322
(dp323
g7
g18
sg9
g19
sbag1
(g2
g3
Ntp324
Rp325
(dp326
g7
g18
sg9
g19
sbag1
(g2
g3
Ntp327
Rp328
(dp329
g7
g18
sg9
g19
sbag1
(g2
g3
Ntp330
Rp331
(dp332
g7
g18
sg9
g19
sbag1
(g2
g3
Ntp333
Rp334
(dp335
g7
g18
sg9
g19
sbag1
(g2
g3
Ntp336
Rp337
(dp338
g7
g18
sg9
g19
sbag1
(g2
g3
Ntp339
Rp340
(dp341
g7
S'for'
p342
sg9
g14
sbag1
(g2
g3
Ntp343
Rp344
(dp345
g7
g99
sg9
g29
sbag1
(g2
g3
Ntp346
Rp347
(dp348
g7
S'int'
p349
sg9
g14
sbag1
(g2
g3
Ntp350
Rp351
(dp352
g7
g18
sg9
g19
sbag1
(g2
g3
Ntp353
Rp354
(dp355
g7
S'i'
p356
sg9
g24
sbag1
(g2
g3
Ntp357
Rp358
(dp359
g7
g18
sg9
g19
sbag1
(g2
g3
Ntp360
Rp361
(dp362
g7
S'='
p363
sg9
g276
sbag1
(g2
g3
Ntp364
Rp365
(dp366
g7
g18
sg9
g19
sbag1
(g2
g3
Ntp367
Rp368
(dp369
g7
S'0'
p370
sg9
g308
sbag1
(g2
g3
Ntp371
Rp372
(dp373
g7
g37
sg9
g29
sbag1
(g2
g3
Ntp374
Rp375
(dp376
g7
g18
sg9
g19
sbag1
(g2
g3
Ntp377
Rp378
(dp379
g7
g356
sg9
g24
sbag1
(g2
g3
Ntp380
Rp381
(dp382
g7
g18
sg9
g19
sbag1
(g2
g3
Ntp383
Rp384
(dp385
g7
S'<'
p386
sg9
g276
sbag1
(g2
g3
Ntp387
Rp388
(dp389
g7
g18
sg9
g19
sbag1
(g2
g3
Ntp390
Rp391
(dp392
g7
S'a1'
p393
sg9
g24
sbag1
(g2
g3
Ntp394
Rp395
(dp396
g7
g28
sg9
g29
sbag1
(g2
g3
Ntp397
Rp398
(dp399
g7
S'length'
p400
sg9
g24
sbag1
(g2
g3
Ntp401
Rp402
(dp403
g7
g37
sg9
g29
sbag1
(g2
g3
Ntp404
Rp405
(dp406
g7
g18
sg9
g19
sbag1
(g2
g3
Ntp407
Rp408
(dp409
g7
g356
sg9
g24
sbag1
(g2
g3
Ntp410
Rp411
(dp412
g7
g18
sg9
g19
sbag1
(g2
g3
Ntp413
Rp414
(dp415
g7
g363
sg9
g276
sbag1
(g2
g3
Ntp416
Rp417
(dp418
g7
g18
sg9
g19
sbag1
(g2
g3
Ntp419
Rp420
(dp421
g7
g356
sg9
g24
sbag1
(g2
g3
Ntp422
Rp423
(dp424
g7
g18
sg9
g19
sbag1
(g2
g3
Ntp425
Rp426
(dp427
g7
S'+'
p428
sg9
g276
sbag1
(g2
g3
Ntp429
Rp430
(dp431
g7
g18
sg9
g19
sbag1
(g2
g3
Ntp432
Rp433
(dp434
g7
S'1'
p435
sg9
g308
sbag1
(g2
g3
Ntp436
Rp437
(dp438
g7
g103
sg9
g29
sbag1
(g2
g3
Ntp439
Rp440
(dp441
g7
g41
sg9
g19
sbag1
(g2
g3
Ntp442
Rp443
(dp444
g7
g18
sg9
g19
sbag1
(g2
g3
Ntp445
Rp446
(dp447
g7
g18
sg9
g19
sbag1
(g2
g3
Ntp448
Rp449
(dp450
g7
g18
sg9
g19
sbag1
(g2
g3
Ntp451
Rp452
(dp453
g7
g18
sg9
g19
sbag1
(g2
g3
Ntp454
Rp455
(dp456
g7
g18
sg9
g19
sbag1
(g2
g3
Ntp457
Rp458
(dp459
g7
g18
sg9
g19
sbag1
(g2
g3
Ntp460
Rp461
(dp462
g7
g18
sg9
g19
sbag1
(g2
g3
Ntp463
Rp464
(dp465
g7
g18
sg9
g19
sbag1
(g2
g3
Ntp466
Rp467
(dp468
g7
g18
sg9
g19
sbag1
(g2
g3
Ntp469
Rp470
(dp471
g7
g18
sg9
g19
sbag1
(g2
g3
Ntp472
Rp473
(dp474
g7
g18
sg9
g19
sbag1
(g2
g3
Ntp475
Rp476
(dp477
g7
g18
sg9
g19
sbag1
(g2
g3
Ntp478
Rp479
(dp480
g7
S'if'
p481
sg9
g14
sbag1
(g2
g3
Ntp482
Rp483
(dp484
g7
g99
sg9
g29
sbag1
(g2
g3
Ntp485
Rp486
(dp487
g7
S'a1'
p488
sg9
g24
sbag1
(g2
g3
Ntp489
Rp490
(dp491
g7
g179
sg9
g29
sbag1
(g2
g3
Ntp492
Rp493
(dp494
g7
g356
sg9
g24
sbag1
(g2
g3
Ntp495
Rp496
(dp497
g7
g183
sg9
g29
sbag1
(g2
g3
Ntp498
Rp499
(dp500
g7
g18
sg9
g19
sbag1
(g2
g3
Ntp501
Rp502
(dp503
g7
S'!='
p504
sg9
g276
sbag1
(g2
g3
Ntp505
Rp506
(dp507
g7
g18
sg9
g19
sbag1
(g2
g3
Ntp508
Rp509
(dp510
g7
S'a2'
p511
sg9
g24
sbag1
(g2
g3
Ntp512
Rp513
(dp514
g7
g179
sg9
g29
sbag1
(g2
g3
Ntp515
Rp516
(dp517
g7
g356
sg9
g24
sbag1
(g2
g3
Ntp518
Rp519
(dp520
g7
g183
sg9
g29
sbag1
(g2
g3
Ntp521
Rp522
(dp523
g7
g103
sg9
g29
sbag1
(g2
g3
Ntp524
Rp525
(dp526
g7
g41
sg9
g19
sbag1
(g2
g3
Ntp527
Rp528
(dp529
g7
g18
sg9
g19
sbag1
(g2
g3
Ntp530
Rp531
(dp532
g7
g18
sg9
g19
sbag1
(g2
g3
Ntp533
Rp534
(dp535
g7
g18
sg9
g19
sbag1
(g2
g3
Ntp536
Rp537
(dp538
g7
g18
sg9
g19
sbag1
(g2
g3
Ntp539
Rp540
(dp541
g7
g18
sg9
g19
sbag1
(g2
g3
Ntp542
Rp543
(dp544
g7
g18
sg9
g19
sbag1
(g2
g3
Ntp545
Rp546
(dp547
g7
g18
sg9
g19
sbag1
(g2
g3
Ntp548
Rp549
(dp550
g7
g18
sg9
g19
sbag1
(g2
g3
Ntp551
Rp552
(dp553
g7
g18
sg9
g19
sbag1
(g2
g3
Ntp554
Rp555
(dp556
g7
g18
sg9
g19
sbag1
(g2
g3
Ntp557
Rp558
(dp559
g7
g18
sg9
g19
sbag1
(g2
g3
Ntp560
Rp561
(dp562
g7
g18
sg9
g19
sbag1
(g2
g3
Ntp563
Rp564
(dp565
g7
g18
sg9
g19
sbag1
(g2
g3
Ntp566
Rp567
(dp568
g7
g18
sg9
g19
sbag1
(g2
g3
Ntp569
Rp570
(dp571
g7
g18
sg9
g19
sbag1
(g2
g3
Ntp572
Rp573
(dp574
g7
g18
sg9
g19
sbag1
(g2
g3
Ntp575
Rp576
(dp577
g7
S'return'
p578
sg9
g14
sbag1
(g2
g3
Ntp579
Rp580
(dp581
g7
g18
sg9
g19
sbag1
(g2
g3
Ntp582
Rp583
(dp584
g7
S'false'
p585
sg9
g308
sbag1
(g2
g3
Ntp586
Rp587
(dp588
g7
g37
sg9
g29
sbag1
(g2
g3
Ntp589
Rp590
(dp591
g7
g41
sg9
g19
sbag1
(g2
g3
Ntp592
Rp593
(dp594
g7
g18
sg9
g19
sbag1
(g2
g3
Ntp595
Rp596
(dp597
g7
g18
sg9
g19
sbag1
(g2
g3
Ntp598
Rp599
(dp600
g7
g18
sg9
g19
sbag1
(g2
g3
Ntp601
Rp602
(dp603
g7
g18
sg9
g19
sbag1
(g2
g3
Ntp604
Rp605
(dp606
g7
g18
sg9
g19
sbag1
(g2
g3
Ntp607
Rp608
(dp609
g7
g18
sg9
g19
sbag1
(g2
g3
Ntp610
Rp611
(dp612
g7
g18
sg9
g19
sbag1
(g2
g3
Ntp613
Rp614
(dp615
g7
g18
sg9
g19
sbag1
(g2
g3
Ntp616
Rp617
(dp618
g7
S'return'
p619
sg9
g14
sbag1
(g2
g3
Ntp620
Rp621
(dp622
g7
g18
sg9
g19
sbag1
(g2
g3
Ntp623
Rp624
(dp625
g7
S'true'
p626
sg9
g308
sbag1
(g2
g3
Ntp627
Rp628
(dp629
g7
g37
sg9
g29
sbag1
(g2
g3
Ntp630
Rp631
(dp632
g7
g41
sg9
g19
sbag1
(g2
g3
Ntp633
Rp634
(dp635
g7
g18
sg9
g19
sbag1
(g2
g3
Ntp636
Rp637
(dp638
g7
g18
sg9
g19
sbag1
(g2
g3
Ntp639
Rp640
(dp641
g7
g18
sg9
g19
sbag1
(g2
g3
Ntp642
Rp643
(dp644
g7
g18
sg9
g19
sbag1
(g2
g3
Ntp645
Rp646
(dp647
g7
g128
sg9
g29
sbag1
(g2
g3
Ntp648
Rp649
(dp650
g7
g41
sg9
g19
sbag1
(g2
g3
Ntp651
Rp652
(dp653
g7
g18
sg9
g19
sbag1
(g2
g3
Ntp654
Rp655
(dp656
g7
g18
sg9
g19
sbag1
(g2
g3
Ntp657
Rp658
(dp659
g7
g18
sg9
g19
sbag1
(g2
g3
Ntp660
Rp661
(dp662
g7
g18
sg9
g19
sbag1
(g2
g3
Ntp663
Rp664
(dp665
g7
S'public'
p666
sg9
g14
sbag1
(g2
g3
Ntp667
Rp668
(dp669
g7
g18
sg9
g19
sbag1
(g2
g3
Ntp670
Rp671
(dp672
g7
S'static'
p673
sg9
g14
sbag1
(g2
g3
Ntp674
Rp675
(dp676
g7
g18
sg9
g19
sbag1
(g2
g3
Ntp677
Rp678
(dp679
g7
S'boolean'
p680
sg9
g14
sbag1
(g2
g3
Ntp681
Rp682
(dp683
g7
g18
sg9
g19
sbag1
(g2
g3
Ntp684
Rp685
(dp686
g7
S'equals'
p687
sg9
g24
sbag1
(g2
g3
Ntp688
Rp689
(dp690
g7
g99
sg9
g29
sbag1
(g2
g3
Ntp691
Rp692
(dp693
g7
S'char'
p694
sg9
g14
sbag1
(g2
g3
Ntp695
Rp696
(dp697
g7
g179
sg9
g29
sbag1
(g2
g3
Ntp698
Rp699
(dp700
g7
g183
sg9
g29
sbag1
(g2
g3
Ntp701
Rp702
(dp703
g7
g18
sg9
g19
sbag1
(g2
g3
Ntp704
Rp705
(dp706
g7
S'a1'
p707
sg9
g24
sbag1
(g2
g3
Ntp708
Rp709
(dp710
g7
g194
sg9
g29
sbag1
(g2
g3
Ntp711
Rp712
(dp713
g7
g18
sg9
g19
sbag1
(g2
g3
Ntp714
Rp715
(dp716
g7
S'char'
p717
sg9
g14
sbag1
(g2
g3
Ntp718
Rp719
(dp720
g7
g179
sg9
g29
sbag1
(g2
g3
Ntp721
Rp722
(dp723
g7
g183
sg9
g29
sbag1
(g2
g3
Ntp724
Rp725
(dp726
g7
g18
sg9
g19
sbag1
(g2
g3
Ntp727
Rp728
(dp729
g7
S'a2'
p730
sg9
g24
sbag1
(g2
g3
Ntp731
Rp732
(dp733
g7
g103
sg9
g29
sbag1
(g2
g3
Ntp734
Rp735
(dp736
g7
g18
sg9
g19
sbag1
(g2
g3
Ntp737
Rp738
(dp739
g7
g69
sg9
g29
sbag1
(g2
g3
Ntp740
Rp741
(dp742
g7
g41
sg9
g19
sbag1
(g2
g3
Ntp743
Rp744
(dp745
g7
g18
sg9
g19
sbag1
(g2
g3
Ntp746
Rp747
(dp748
g7
g18
sg9
g19
sbag1
(g2
g3
Ntp749
Rp750
(dp751
g7
g18
sg9
g19
sbag1
(g2
g3
Ntp752
Rp753
(dp754
g7
g18
sg9
g19
sbag1
(g2
g3
Ntp755
Rp756
(dp757
g7
g18
sg9
g19
sbag1
(g2
g3
Ntp758
Rp759
(dp760
g7
g18
sg9
g19
sbag1
(g2
g3
Ntp761
Rp762
(dp763
g7
g18
sg9
g19
sbag1
(g2
g3
Ntp764
Rp765
(dp766
g7
g18
sg9
g19
sbag1
(g2
g3
Ntp767
Rp768
(dp769
g7
S'if'
p770
sg9
g14
sbag1
(g2
g3
Ntp771
Rp772
(dp773
g7
g99
sg9
g29
sbag1
(g2
g3
Ntp774
Rp775
(dp776
g7
S'a1'
p777
sg9
g24
sbag1
(g2
g3
Ntp778
Rp779
(dp780
g7
g28
sg9
g29
sbag1
(g2
g3
Ntp781
Rp782
(dp783
g7
S'length'
p784
sg9
g24
sbag1
(g2
g3
Ntp785
Rp786
(dp787
g7
g18
sg9
g19
sbag1
(g2
g3
Ntp788
Rp789
(dp790
g7
S'!='
p791
sg9
g276
sbag1
(g2
g3
Ntp792
Rp793
(dp794
g7
g18
sg9
g19
sbag1
(g2
g3
Ntp795
Rp796
(dp797
g7
S'a2'
p798
sg9
g24
sbag1
(g2
g3
Ntp799
Rp800
(dp801
g7
g28
sg9
g29
sbag1
(g2
g3
Ntp802
Rp803
(dp804
g7
S'length'
p805
sg9
g24
sbag1
(g2
g3
Ntp806
Rp807
(dp808
g7
g103
sg9
g29
sbag1
(g2
g3
Ntp809
Rp810
(dp811
g7
g18
sg9
g19
sbag1
(g2
g3
Ntp812
Rp813
(dp814
g7
S'return'
p815
sg9
g14
sbag1
(g2
g3
Ntp816
Rp817
(dp818
g7
g18
sg9
g19
sbag1
(g2
g3
Ntp819
Rp820
(dp821
g7
S'false'
p822
sg9
g308
sbag1
(g2
g3
Ntp823
Rp824
(dp825
g7
g37
sg9
g29
sbag1
(g2
g3
Ntp826
Rp827
(dp828
g7
g41
sg9
g19
sbag1
(g2
g3
Ntp829
Rp830
(dp831
g7
g18
sg9
g19
sbag1
(g2
g3
Ntp832
Rp833
(dp834
g7
g18
sg9
g19
sbag1
(g2
g3
Ntp835
Rp836
(dp837
g7
g18
sg9
g19
sbag1
(g2
g3
Ntp838
Rp839
(dp840
g7
g18
sg9
g19
sbag1
(g2
g3
Ntp841
Rp842
(dp843
g7
g18
sg9
g19
sbag1
(g2
g3
Ntp844
Rp845
(dp846
g7
g18
sg9
g19
sbag1
(g2
g3
Ntp847
Rp848
(dp849
g7
g18
sg9
g19
sbag1
(g2
g3
Ntp850
Rp851
(dp852
g7
g18
sg9
g19
sbag1
(g2
g3
Ntp853
Rp854
(dp855
g7
S'for'
p856
sg9
g14
sbag1
(g2
g3
Ntp857
Rp858
(dp859
g7
g99
sg9
g29
sbag1
(g2
g3
Ntp860
Rp861
(dp862
g7
S'int'
p863
sg9
g14
sbag1
(g2
g3
Ntp864
Rp865
(dp866
g7
g18
sg9
g19
sbag1
(g2
g3
Ntp867
Rp868
(dp869
g7
g356
sg9
g24
sbag1
(g2
g3
Ntp870
Rp871
(dp872
g7
g18
sg9
g19
sbag1
(g2
g3
Ntp873
Rp874
(dp875
g7
g363
sg9
g276
sbag1
(g2
g3
Ntp876
Rp877
(dp878
g7
g18
sg9
g19
sbag1
(g2
g3
Ntp879
Rp880
(dp881
g7
g370
sg9
g308
sbag1
(g2
g3
Ntp882
Rp883
(dp884
g7
g37
sg9
g29
sbag1
(g2
g3
Ntp885
Rp886
(dp887
g7
g18
sg9
g19
sbag1
(g2
g3
Ntp888
Rp889
(dp890
g7
g356
sg9
g24
sbag1
(g2
g3
Ntp891
Rp892
(dp893
g7
g18
sg9
g19
sbag1
(g2
g3
Ntp894
Rp895
(dp896
g7
g386
sg9
g276
sbag1
(g2
g3
Ntp897
Rp898
(dp899
g7
g18
sg9
g19
sbag1
(g2
g3
Ntp900
Rp901
(dp902
g7
S'a1'
p903
sg9
g24
sbag1
(g2
g3
Ntp904
Rp905
(dp906
g7
g28
sg9
g29
sbag1
(g2
g3
Ntp907
Rp908
(dp909
g7
S'length'
p910
sg9
g24
sbag1
(g2
g3
Ntp911
Rp912
(dp913
g7
g37
sg9
g29
sbag1
(g2
g3
Ntp914
Rp915
(dp916
g7
g18
sg9
g19
sbag1
(g2
g3
Ntp917
Rp918
(dp919
g7
g356
sg9
g24
sbag1
(g2
g3
Ntp920
Rp921
(dp922
g7
g18
sg9
g19
sbag1
(g2
g3
Ntp923
Rp924
(dp925
g7
g363
sg9
g276
sbag1
(g2
g3
Ntp926
Rp927
(dp928
g7
g18
sg9
g19
sbag1
(g2
g3
Ntp929
Rp930
(dp931
g7
g356
sg9
g24
sbag1
(g2
g3
Ntp932
Rp933
(dp934
g7
g18
sg9
g19
sbag1
(g2
g3
Ntp935
Rp936
(dp937
g7
g428
sg9
g276
sbag1
(g2
g3
Ntp938
Rp939
(dp940
g7
g18
sg9
g19
sbag1
(g2
g3
Ntp941
Rp942
(dp943
g7
g435
sg9
g308
sbag1
(g2
g3
Ntp944
Rp945
(dp946
g7
g103
sg9
g29
sbag1
(g2
g3
Ntp947
Rp948
(dp949
g7
g41
sg9
g19
sbag1
(g2
g3
Ntp950
Rp951
(dp952
g7
g18
sg9
g19
sbag1
(g2
g3
Ntp953
Rp954
(dp955
g7
g18
sg9
g19
sbag1
(g2
g3
Ntp956
Rp957
(dp958
g7
g18
sg9
g19
sbag1
(g2
g3
Ntp959
Rp960
(dp961
g7
g18
sg9
g19
sbag1
(g2
g3
Ntp962
Rp963
(dp964
g7
g18
sg9
g19
sbag1
(g2
g3
Ntp965
Rp966
(dp967
g7
g18
sg9
g19
sbag1
(g2
g3
Ntp968
Rp969
(dp970
g7
g18
sg9
g19
sbag1
(g2
g3
Ntp971
Rp972
(dp973
g7
g18
sg9
g19
sbag1
(g2
g3
Ntp974
Rp975
(dp976
g7
g18
sg9
g19
sbag1
(g2
g3
Ntp977
Rp978
(dp979
g7
g18
sg9
g19
sbag1
(g2
g3
Ntp980
Rp981
(dp982
g7
g18
sg9
g19
sbag1
(g2
g3
Ntp983
Rp984
(dp985
g7
g18
sg9
g19
sbag1
(g2
g3
Ntp986
Rp987
(dp988
g7
S'if'
p989
sg9
g14
sbag1
(g2
g3
Ntp990
Rp991
(dp992
g7
g99
sg9
g29
sbag1
(g2
g3
Ntp993
Rp994
(dp995
g7
S'a1'
p996
sg9
g24
sbag1
(g2
g3
Ntp997
Rp998
(dp999
g7
g179
sg9
g29
sbag1
(g2
g3
Ntp1000
Rp1001
(dp1002
g7
g356
sg9
g24
sbag1
(g2
g3
Ntp1003
Rp1004
(dp1005
g7
g183
sg9
g29
sbag1
(g2
g3
Ntp1006
Rp1007
(dp1008
g7
g18
sg9
g19
sbag1
(g2
g3
Ntp1009
Rp1010
(dp1011
g7
S'!='
p1012
sg9
g276
sbag1
(g2
g3
Ntp1013
Rp1014
(dp1015
g7
g18
sg9
g19
sbag1
(g2
g3
Ntp1016
Rp1017
(dp1018
g7
S'a2'
p1019
sg9
g24
sbag1
(g2
g3
Ntp1020
Rp1021
(dp1022
g7
g179
sg9
g29
sbag1
(g2
g3
Ntp1023
Rp1024
(dp1025
g7
g356
sg9
g24
sbag1
(g2
g3
Ntp1026
Rp1027
(dp1028
g7
g183
sg9
g29
sbag1
(g2
g3
Ntp1029
Rp1030
(dp1031
g7
g103
sg9
g29
sbag1
(g2
g3
Ntp1032
Rp1033
(dp1034
g7
g41
sg9
g19
sbag1
(g2
g3
Ntp1035
Rp1036
(dp1037
g7
g18
sg9
g19
sbag1
(g2
g3
Ntp1038
Rp1039
(dp1040
g7
g18
sg9
g19
sbag1
(g2
g3
Ntp1041
Rp1042
(dp1043
g7
g18
sg9
g19
sbag1
(g2
g3
Ntp1044
Rp1045
(dp1046
g7
g18
sg9
g19
sbag1
(g2
g3
Ntp1047
Rp1048
(dp1049
g7
g18
sg9
g19
sbag1
(g2
g3
Ntp1050
Rp1051
(dp1052
g7
g18
sg9
g19
sbag1
(g2
g3
Ntp1053
Rp1054
(dp1055
g7
g18
sg9
g19
sbag1
(g2
g3
Ntp1056
Rp1057
(dp1058
g7
g18
sg9
g19
sbag1
(g2
g3
Ntp1059
Rp1060
(dp1061
g7
g18
sg9
g19
sbag1
(g2
g3
Ntp1062
Rp1063
(dp1064
g7
g18
sg9
g19
sbag1
(g2
g3
Ntp1065
Rp1066
(dp1067
g7
g18
sg9
g19
sbag1
(g2
g3
Ntp1068
Rp1069
(dp1070
g7
g18
sg9
g19
sbag1
(g2
g3
Ntp1071
Rp1072
(dp1073
g7
g18
sg9
g19
sbag1
(g2
g3
Ntp1074
Rp1075
(dp1076
g7
g18
sg9
g19
sbag1
(g2
g3
Ntp1077
Rp1078
(dp1079
g7
g18
sg9
g19
sbag1
(g2
g3
Ntp1080
Rp1081
(dp1082
g7
g18
sg9
g19
sbag1
(g2
g3
Ntp1083
Rp1084
(dp1085
g7
S'return'
p1086
sg9
g14
sbag1
(g2
g3
Ntp1087
Rp1088
(dp1089
g7
g18
sg9
g19
sbag1
(g2
g3
Ntp1090
Rp1091
(dp1092
g7
S'false'
p1093
sg9
g308
sbag1
(g2
g3
Ntp1094
Rp1095
(dp1096
g7
g37
sg9
g29
sbag1
(g2
g3
Ntp1097
Rp1098
(dp1099
g7
g41
sg9
g19
sbag1
(g2
g3
Ntp1100
Rp1101
(dp1102
g7
g18
sg9
g19
sbag1
(g2
g3
Ntp1103
Rp1104
(dp1105
g7
g18
sg9
g19
sbag1
(g2
g3
Ntp1106
Rp1107
(dp1108
g7
g18
sg9
g19
sbag1
(g2
g3
Ntp1109
Rp1110
(dp1111
g7
g18
sg9
g19
sbag1
(g2
g3
Ntp1112
Rp1113
(dp1114
g7
g18
sg9
g19
sbag1
(g2
g3
Ntp1115
Rp1116
(dp1117
g7
g18
sg9
g19
sbag1
(g2
g3
Ntp1118
Rp1119
(dp1120
g7
g18
sg9
g19
sbag1
(g2
g3
Ntp1121
Rp1122
(dp1123
g7
g18
sg9
g19
sbag1
(g2
g3
Ntp1124
Rp1125
(dp1126
g7
S'return'
p1127
sg9
g14
sbag1
(g2
g3
Ntp1128
Rp1129
(dp1130
g7
g18
sg9
g19
sbag1
(g2
g3
Ntp1131
Rp1132
(dp1133
g7
S'true'
p1134
sg9
g308
sbag1
(g2
g3
Ntp1135
Rp1136
(dp1137
g7
g37
sg9
g29
sbag1
(g2
g3
Ntp1138
Rp1139
(dp1140
g7
g41
sg9
g19
sbag1
(g2
g3
Ntp1141
Rp1142
(dp1143
g7
g18
sg9
g19
sbag1
(g2
g3
Ntp1144
Rp1145
(dp1146
g7
g18
sg9
g19
sbag1
(g2
g3
Ntp1147
Rp1148
(dp1149
g7
g18
sg9
g19
sbag1
(g2
g3
Ntp1150
Rp1151
(dp1152
g7
g18
sg9
g19
sbag1
(g2
g3
Ntp1153
Rp1154
(dp1155
g7
g128
sg9
g29
sbag1
(g2
g3
Ntp1156
Rp1157
(dp1158
g7
g41
sg9
g19
sbag1
(g2
g3
Ntp1159
Rp1160
(dp1161
g7
g128
sg9
g29
sbag1
(g2
g3
Ntp1162
Rp1163
(dp1164
g7
g41
sg9
g19
sbag1
(g2
g3
Ntp1165
Rp1166
(dp1167
g7
S'EOF'
p1168
sg9
g1168
sba.