(lp0
ccopy_reg
_reconstructor
p1
(cscanner.scanner
Token
p2
c__builtin__
object
p3
Ntp4
Rp5
(dp6
S'lexeme'
p7
S'BOF'
p8
sS'type'
p9
g8
sbag1
(g2
g3
Ntp10
Rp11
(dp12
g7
S'package'
p13
sg9
S'Keyword'
p14
sbag1
(g2
g3
Ntp15
Rp16
(dp17
g7
S' '
p18
sg9
S'Whitespace'
p19
sbag1
(g2
g3
Ntp20
Rp21
(dp22
g7
S'java'
p23
sg9
S'Identifier'
p24
sbag1
(g2
g3
Ntp25
Rp26
(dp27
g7
S'.'
p28
sg9
S'Separator'
p29
sbag1
(g2
g3
Ntp30
Rp31
(dp32
g7
S'lang'
p33
sg9
g24
sbag1
(g2
g3
Ntp34
Rp35
(dp36
g7
S';'
p37
sg9
g29
sbag1
(g2
g3
Ntp38
Rp39
(dp40
g7
S'\n'
p41
sg9
g19
sbag1
(g2
g3
Ntp42
Rp43
(dp44
g7
S'public'
p45
sg9
g14
sbag1
(g2
g3
Ntp46
Rp47
(dp48
g7
g18
sg9
g19
sbag1
(g2
g3
Ntp49
Rp50
(dp51
g7
S'final'
p52
sg9
g14
sbag1
(g2
g3
Ntp53
Rp54
(dp55
g7
g18
sg9
g19
sbag1
(g2
g3
Ntp56
Rp57
(dp58
g7
S'class'
p59
sg9
g14
sbag1
(g2
g3
Ntp60
Rp61
(dp62
g7
g18
sg9
g19
sbag1
(g2
g3
Ntp63
Rp64
(dp65
g7
S'Byte'
p66
sg9
g24
sbag1
(g2
g3
Ntp67
Rp68
(dp69
g7
g18
sg9
g19
sbag1
(g2
g3
Ntp70
Rp71
(dp72
g7
S'{'
p73
sg9
g29
sbag1
(g2
g3
Ntp74
Rp75
(dp76
g7
g41
sg9
g19
sbag1
(g2
g3
Ntp77
Rp78
(dp79
g7
g18
sg9
g19
sbag1
(g2
g3
Ntp80
Rp81
(dp82
g7
g18
sg9
g19
sbag1
(g2
g3
Ntp83
Rp84
(dp85
g7
g18
sg9
g19
sbag1
(g2
g3
Ntp86
Rp87
(dp88
g7
g18
sg9
g19
sbag1
(g2
g3
Ntp89
Rp90
(dp91
g7
S'public'
p92
sg9
g14
sbag1
(g2
g3
Ntp93
Rp94
(dp95
g7
g18
sg9
g19
sbag1
(g2
g3
Ntp96
Rp97
(dp98
g7
S'byte'
p99
sg9
g14
sbag1
(g2
g3
Ntp100
Rp101
(dp102
g7
g18
sg9
g19
sbag1
(g2
g3
Ntp103
Rp104
(dp105
g7
S'value'
p106
sg9
g24
sbag1
(g2
g3
Ntp107
Rp108
(dp109
g7
g37
sg9
g29
sbag1
(g2
g3
Ntp110
Rp111
(dp112
g7
g41
sg9
g19
sbag1
(g2
g3
Ntp113
Rp114
(dp115
g7
g18
sg9
g19
sbag1
(g2
g3
Ntp116
Rp117
(dp118
g7
g18
sg9
g19
sbag1
(g2
g3
Ntp119
Rp120
(dp121
g7
g18
sg9
g19
sbag1
(g2
g3
Ntp122
Rp123
(dp124
g7
g18
sg9
g19
sbag1
(g2
g3
Ntp125
Rp126
(dp127
g7
S'public'
p128
sg9
g14
sbag1
(g2
g3
Ntp129
Rp130
(dp131
g7
g18
sg9
g19
sbag1
(g2
g3
Ntp132
Rp133
(dp134
g7
S'Byte'
p135
sg9
g24
sbag1
(g2
g3
Ntp136
Rp137
(dp138
g7
S'('
p139
sg9
g29
sbag1
(g2
g3
Ntp140
Rp141
(dp142
g7
S'byte'
p143
sg9
g14
sbag1
(g2
g3
Ntp144
Rp145
(dp146
g7
g18
sg9
g19
sbag1
(g2
g3
Ntp147
Rp148
(dp149
g7
S'i'
p150
sg9
g24
sbag1
(g2
g3
Ntp151
Rp152
(dp153
g7
S')'
p154
sg9
g29
sbag1
(g2
g3
Ntp155
Rp156
(dp157
g7
g18
sg9
g19
sbag1
(g2
g3
Ntp158
Rp159
(dp160
g7
g73
sg9
g29
sbag1
(g2
g3
Ntp161
Rp162
(dp163
g7
g41
sg9
g19
sbag1
(g2
g3
Ntp164
Rp165
(dp166
g7
g18
sg9
g19
sbag1
(g2
g3
Ntp167
Rp168
(dp169
g7
g18
sg9
g19
sbag1
(g2
g3
Ntp170
Rp171
(dp172
g7
g18
sg9
g19
sbag1
(g2
g3
Ntp173
Rp174
(dp175
g7
g18
sg9
g19
sbag1
(g2
g3
Ntp176
Rp177
(dp178
g7
g18
sg9
g19
sbag1
(g2
g3
Ntp179
Rp180
(dp181
g7
g18
sg9
g19
sbag1
(g2
g3
Ntp182
Rp183
(dp184
g7
g18
sg9
g19
sbag1
(g2
g3
Ntp185
Rp186
(dp187
g7
g18
sg9
g19
sbag1
(g2
g3
Ntp188
Rp189
(dp190
g7
S'value'
p191
sg9
g24
sbag1
(g2
g3
Ntp192
Rp193
(dp194
g7
g18
sg9
g19
sbag1
(g2
g3
Ntp195
Rp196
(dp197
g7
S'='
p198
sg9
S'Operator'
p199
sbag1
(g2
g3
Ntp200
Rp201
(dp202
g7
g18
sg9
g19
sbag1
(g2
g3
Ntp203
Rp204
(dp205
g7
g150
sg9
g24
sbag1
(g2
g3
Ntp206
Rp207
(dp208
g7
g37
sg9
g29
sbag1
(g2
g3
Ntp209
Rp210
(dp211
g7
g41
sg9
g19
sbag1
(g2
g3
Ntp212
Rp213
(dp214
g7
g18
sg9
g19
sbag1
(g2
g3
Ntp215
Rp216
(dp217
g7
g18
sg9
g19
sbag1
(g2
g3
Ntp218
Rp219
(dp220
g7
g18
sg9
g19
sbag1
(g2
g3
Ntp221
Rp222
(dp223
g7
g18
sg9
g19
sbag1
(g2
g3
Ntp224
Rp225
(dp226
g7
S'}'
p227
sg9
g29
sbag1
(g2
g3
Ntp228
Rp229
(dp230
g7
g41
sg9
g19
sbag1
(g2
g3
Ntp231
Rp232
(dp233
g7
g18
sg9
g19
sbag1
(g2
g3
Ntp234
Rp235
(dp236
g7
g18
sg9
g19
sbag1
(g2
g3
Ntp237
Rp238
(dp239
g7
g18
sg9
g19
sbag1
(g2
g3
Ntp240
Rp241
(dp242
g7
g18
sg9
g19
sbag1
(g2
g3
Ntp243
Rp244
(dp245
g7
S'public'
p246
sg9
g14
sbag1
(g2
g3
Ntp247
Rp248
(dp249
g7
g18
sg9
g19
sbag1
(g2
g3
Ntp250
Rp251
(dp252
g7
S'Byte'
p253
sg9
g24
sbag1
(g2
g3
Ntp254
Rp255
(dp256
g7
g139
sg9
g29
sbag1
(g2
g3
Ntp257
Rp258
(dp259
g7
g154
sg9
g29
sbag1
(g2
g3
Ntp260
Rp261
(dp262
g7
g18
sg9
g19
sbag1
(g2
g3
Ntp263
Rp264
(dp265
g7
g73
sg9
g29
sbag1
(g2
g3
Ntp266
Rp267
(dp268
g7
g41
sg9
g19
sbag1
(g2
g3
Ntp269
Rp270
(dp271
g7
g18
sg9
g19
sbag1
(g2
g3
Ntp272
Rp273
(dp274
g7
g18
sg9
g19
sbag1
(g2
g3
Ntp275
Rp276
(dp277
g7
g18
sg9
g19
sbag1
(g2
g3
Ntp278
Rp279
(dp280
g7
g18
sg9
g19
sbag1
(g2
g3
Ntp281
Rp282
(dp283
g7
g227
sg9
g29
sbag1
(g2
g3
Ntp284
Rp285
(dp286
g7
g41
sg9
g19
sbag1
(g2
g3
Ntp287
Rp288
(dp289
g7
g18
sg9
g19
sbag1
(g2
g3
Ntp290
Rp291
(dp292
g7
g18
sg9
g19
sbag1
(g2
g3
Ntp293
Rp294
(dp295
g7
g18
sg9
g19
sbag1
(g2
g3
Ntp296
Rp297
(dp298
g7
g18
sg9
g19
sbag1
(g2
g3
Ntp299
Rp300
(dp301
g7
S'public'
p302
sg9
g14
sbag1
(g2
g3
Ntp303
Rp304
(dp305
g7
g18
sg9
g19
sbag1
(g2
g3
Ntp306
Rp307
(dp308
g7
S'static'
p309
sg9
g14
sbag1
(g2
g3
Ntp310
Rp311
(dp312
g7
g18
sg9
g19
sbag1
(g2
g3
Ntp313
Rp314
(dp315
g7
S'byte'
p316
sg9
g14
sbag1
(g2
g3
Ntp317
Rp318
(dp319
g7
g18
sg9
g19
sbag1
(g2
g3
Ntp320
Rp321
(dp322
g7
S'MAX_VALUE'
p323
sg9
g24
sbag1
(g2
g3
Ntp324
Rp325
(dp326
g7
g18
sg9
g19
sbag1
(g2
g3
Ntp327
Rp328
(dp329
g7
g198
sg9
g199
sbag1
(g2
g3
Ntp330
Rp331
(dp332
g7
g18
sg9
g19
sbag1
(g2
g3
Ntp333
Rp334
(dp335
g7
g139
sg9
g29
sbag1
(g2
g3
Ntp336
Rp337
(dp338
g7
S'byte'
p339
sg9
g14
sbag1
(g2
g3
Ntp340
Rp341
(dp342
g7
g154
sg9
g29
sbag1
(g2
g3
Ntp343
Rp344
(dp345
g7
S'127'
p346
sg9
S'Literal'
p347
sbag1
(g2
g3
Ntp348
Rp349
(dp350
g7
g37
sg9
g29
sbag1
(g2
g3
Ntp351
Rp352
(dp353
g7
g41
sg9
g19
sbag1
(g2
g3
Ntp354
Rp355
(dp356
g7
g227
sg9
g29
sbag1
(g2
g3
Ntp357
Rp358
(dp359
g7
g41
sg9
g19
sbag1
(g2
g3
Ntp360
Rp361
(dp362
g7
S'EOF'
p363
sg9
g363
sba.