(lp0
ccopy_reg
_reconstructor
p1
(cscanner.scanner
Token
p2
c__builtin__
object
p3
Ntp4
Rp5
(dp6
S'lexeme'
p7
S'BOF'
p8
sS'type'
p9
g8
sbag1
(g2
g3
Ntp10
Rp11
(dp12
g7
S'package'
p13
sg9
S'Keyword'
p14
sbag1
(g2
g3
Ntp15
Rp16
(dp17
g7
S' '
p18
sg9
S'Whitespace'
p19
sbag1
(g2
g3
Ntp20
Rp21
(dp22
g7
S'java'
p23
sg9
S'Identifier'
p24
sbag1
(g2
g3
Ntp25
Rp26
(dp27
g7
S'.'
p28
sg9
S'Separator'
p29
sbag1
(g2
g3
Ntp30
Rp31
(dp32
g7
S'lang'
p33
sg9
g24
sbag1
(g2
g3
Ntp34
Rp35
(dp36
g7
S';'
p37
sg9
g29
sbag1
(g2
g3
Ntp38
Rp39
(dp40
g7
S'\n'
p41
sg9
g19
sbag1
(g2
g3
Ntp42
Rp43
(dp44
g7
S'public'
p45
sg9
g14
sbag1
(g2
g3
Ntp46
Rp47
(dp48
g7
g18
sg9
g19
sbag1
(g2
g3
Ntp49
Rp50
(dp51
g7
S'final'
p52
sg9
g14
sbag1
(g2
g3
Ntp53
Rp54
(dp55
g7
g18
sg9
g19
sbag1
(g2
g3
Ntp56
Rp57
(dp58
g7
S'class'
p59
sg9
g14
sbag1
(g2
g3
Ntp60
Rp61
(dp62
g7
g18
sg9
g19
sbag1
(g2
g3
Ntp63
Rp64
(dp65
g7
S'Integer'
p66
sg9
g24
sbag1
(g2
g3
Ntp67
Rp68
(dp69
g7
g18
sg9
g19
sbag1
(g2
g3
Ntp70
Rp71
(dp72
g7
S'extends'
p73
sg9
g14
sbag1
(g2
g3
Ntp74
Rp75
(dp76
g7
g18
sg9
g19
sbag1
(g2
g3
Ntp77
Rp78
(dp79
g7
S'Number'
p80
sg9
g24
sbag1
(g2
g3
Ntp81
Rp82
(dp83
g7
g18
sg9
g19
sbag1
(g2
g3
Ntp84
Rp85
(dp86
g7
S'{'
p87
sg9
g29
sbag1
(g2
g3
Ntp88
Rp89
(dp90
g7
g41
sg9
g19
sbag1
(g2
g3
Ntp91
Rp92
(dp93
g7
g18
sg9
g19
sbag1
(g2
g3
Ntp94
Rp95
(dp96
g7
g18
sg9
g19
sbag1
(g2
g3
Ntp97
Rp98
(dp99
g7
g18
sg9
g19
sbag1
(g2
g3
Ntp100
Rp101
(dp102
g7
g18
sg9
g19
sbag1
(g2
g3
Ntp103
Rp104
(dp105
g7
S'public'
p106
sg9
g14
sbag1
(g2
g3
Ntp107
Rp108
(dp109
g7
g18
sg9
g19
sbag1
(g2
g3
Ntp110
Rp111
(dp112
g7
S'int'
p113
sg9
g14
sbag1
(g2
g3
Ntp114
Rp115
(dp116
g7
g18
sg9
g19
sbag1
(g2
g3
Ntp117
Rp118
(dp119
g7
S'value'
p120
sg9
g24
sbag1
(g2
g3
Ntp121
Rp122
(dp123
g7
g37
sg9
g29
sbag1
(g2
g3
Ntp124
Rp125
(dp126
g7
g41
sg9
g19
sbag1
(g2
g3
Ntp127
Rp128
(dp129
g7
g18
sg9
g19
sbag1
(g2
g3
Ntp130
Rp131
(dp132
g7
g18
sg9
g19
sbag1
(g2
g3
Ntp133
Rp134
(dp135
g7
g18
sg9
g19
sbag1
(g2
g3
Ntp136
Rp137
(dp138
g7
g18
sg9
g19
sbag1
(g2
g3
Ntp139
Rp140
(dp141
g7
S'public'
p142
sg9
g14
sbag1
(g2
g3
Ntp143
Rp144
(dp145
g7
g18
sg9
g19
sbag1
(g2
g3
Ntp146
Rp147
(dp148
g7
S'Integer'
p149
sg9
g24
sbag1
(g2
g3
Ntp150
Rp151
(dp152
g7
S'('
p153
sg9
g29
sbag1
(g2
g3
Ntp154
Rp155
(dp156
g7
S'int'
p157
sg9
g14
sbag1
(g2
g3
Ntp158
Rp159
(dp160
g7
g18
sg9
g19
sbag1
(g2
g3
Ntp161
Rp162
(dp163
g7
S'i'
p164
sg9
g24
sbag1
(g2
g3
Ntp165
Rp166
(dp167
g7
S')'
p168
sg9
g29
sbag1
(g2
g3
Ntp169
Rp170
(dp171
g7
g18
sg9
g19
sbag1
(g2
g3
Ntp172
Rp173
(dp174
g7
g87
sg9
g29
sbag1
(g2
g3
Ntp175
Rp176
(dp177
g7
g41
sg9
g19
sbag1
(g2
g3
Ntp178
Rp179
(dp180
g7
g18
sg9
g19
sbag1
(g2
g3
Ntp181
Rp182
(dp183
g7
g18
sg9
g19
sbag1
(g2
g3
Ntp184
Rp185
(dp186
g7
g18
sg9
g19
sbag1
(g2
g3
Ntp187
Rp188
(dp189
g7
g18
sg9
g19
sbag1
(g2
g3
Ntp190
Rp191
(dp192
g7
g18
sg9
g19
sbag1
(g2
g3
Ntp193
Rp194
(dp195
g7
g18
sg9
g19
sbag1
(g2
g3
Ntp196
Rp197
(dp198
g7
g18
sg9
g19
sbag1
(g2
g3
Ntp199
Rp200
(dp201
g7
g18
sg9
g19
sbag1
(g2
g3
Ntp202
Rp203
(dp204
g7
S'value'
p205
sg9
g24
sbag1
(g2
g3
Ntp206
Rp207
(dp208
g7
g18
sg9
g19
sbag1
(g2
g3
Ntp209
Rp210
(dp211
g7
S'='
p212
sg9
S'Operator'
p213
sbag1
(g2
g3
Ntp214
Rp215
(dp216
g7
g18
sg9
g19
sbag1
(g2
g3
Ntp217
Rp218
(dp219
g7
g164
sg9
g24
sbag1
(g2
g3
Ntp220
Rp221
(dp222
g7
g37
sg9
g29
sbag1
(g2
g3
Ntp223
Rp224
(dp225
g7
g41
sg9
g19
sbag1
(g2
g3
Ntp226
Rp227
(dp228
g7
g18
sg9
g19
sbag1
(g2
g3
Ntp229
Rp230
(dp231
g7
g18
sg9
g19
sbag1
(g2
g3
Ntp232
Rp233
(dp234
g7
g18
sg9
g19
sbag1
(g2
g3
Ntp235
Rp236
(dp237
g7
g18
sg9
g19
sbag1
(g2
g3
Ntp238
Rp239
(dp240
g7
S'}'
p241
sg9
g29
sbag1
(g2
g3
Ntp242
Rp243
(dp244
g7
g41
sg9
g19
sbag1
(g2
g3
Ntp245
Rp246
(dp247
g7
g18
sg9
g19
sbag1
(g2
g3
Ntp248
Rp249
(dp250
g7
g18
sg9
g19
sbag1
(g2
g3
Ntp251
Rp252
(dp253
g7
g18
sg9
g19
sbag1
(g2
g3
Ntp254
Rp255
(dp256
g7
g18
sg9
g19
sbag1
(g2
g3
Ntp257
Rp258
(dp259
g7
S'public'
p260
sg9
g14
sbag1
(g2
g3
Ntp261
Rp262
(dp263
g7
g18
sg9
g19
sbag1
(g2
g3
Ntp264
Rp265
(dp266
g7
S'int'
p267
sg9
g14
sbag1
(g2
g3
Ntp268
Rp269
(dp270
g7
g18
sg9
g19
sbag1
(g2
g3
Ntp271
Rp272
(dp273
g7
S'intValue'
p274
sg9
g24
sbag1
(g2
g3
Ntp275
Rp276
(dp277
g7
g153
sg9
g29
sbag1
(g2
g3
Ntp278
Rp279
(dp280
g7
g168
sg9
g29
sbag1
(g2
g3
Ntp281
Rp282
(dp283
g7
g18
sg9
g19
sbag1
(g2
g3
Ntp284
Rp285
(dp286
g7
g87
sg9
g29
sbag1
(g2
g3
Ntp287
Rp288
(dp289
g7
g41
sg9
g19
sbag1
(g2
g3
Ntp290
Rp291
(dp292
g7
g18
sg9
g19
sbag1
(g2
g3
Ntp293
Rp294
(dp295
g7
g18
sg9
g19
sbag1
(g2
g3
Ntp296
Rp297
(dp298
g7
g18
sg9
g19
sbag1
(g2
g3
Ntp299
Rp300
(dp301
g7
g18
sg9
g19
sbag1
(g2
g3
Ntp302
Rp303
(dp304
g7
g18
sg9
g19
sbag1
(g2
g3
Ntp305
Rp306
(dp307
g7
g18
sg9
g19
sbag1
(g2
g3
Ntp308
Rp309
(dp310
g7
g18
sg9
g19
sbag1
(g2
g3
Ntp311
Rp312
(dp313
g7
g18
sg9
g19
sbag1
(g2
g3
Ntp314
Rp315
(dp316
g7
S'return'
p317
sg9
g14
sbag1
(g2
g3
Ntp318
Rp319
(dp320
g7
g18
sg9
g19
sbag1
(g2
g3
Ntp321
Rp322
(dp323
g7
S'value'
p324
sg9
g24
sbag1
(g2
g3
Ntp325
Rp326
(dp327
g7
g37
sg9
g29
sbag1
(g2
g3
Ntp328
Rp329
(dp330
g7
g41
sg9
g19
sbag1
(g2
g3
Ntp331
Rp332
(dp333
g7
g18
sg9
g19
sbag1
(g2
g3
Ntp334
Rp335
(dp336
g7
g18
sg9
g19
sbag1
(g2
g3
Ntp337
Rp338
(dp339
g7
g18
sg9
g19
sbag1
(g2
g3
Ntp340
Rp341
(dp342
g7
g18
sg9
g19
sbag1
(g2
g3
Ntp343
Rp344
(dp345
g7
g241
sg9
g29
sbag1
(g2
g3
Ntp346
Rp347
(dp348
g7
g41
sg9
g19
sbag1
(g2
g3
Ntp349
Rp350
(dp351
g7
g18
sg9
g19
sbag1
(g2
g3
Ntp352
Rp353
(dp354
g7
g18
sg9
g19
sbag1
(g2
g3
Ntp355
Rp356
(dp357
g7
g18
sg9
g19
sbag1
(g2
g3
Ntp358
Rp359
(dp360
g7
g18
sg9
g19
sbag1
(g2
g3
Ntp361
Rp362
(dp363
g7
S'public'
p364
sg9
g14
sbag1
(g2
g3
Ntp365
Rp366
(dp367
g7
g18
sg9
g19
sbag1
(g2
g3
Ntp368
Rp369
(dp370
g7
S'static'
p371
sg9
g14
sbag1
(g2
g3
Ntp372
Rp373
(dp374
g7
g18
sg9
g19
sbag1
(g2
g3
Ntp375
Rp376
(dp377
g7
S'int'
p378
sg9
g14
sbag1
(g2
g3
Ntp379
Rp380
(dp381
g7
g18
sg9
g19
sbag1
(g2
g3
Ntp382
Rp383
(dp384
g7
S'parseInt'
p385
sg9
g24
sbag1
(g2
g3
Ntp386
Rp387
(dp388
g7
g153
sg9
g29
sbag1
(g2
g3
Ntp389
Rp390
(dp391
g7
S'String'
p392
sg9
g24
sbag1
(g2
g3
Ntp393
Rp394
(dp395
g7
g18
sg9
g19
sbag1
(g2
g3
Ntp396
Rp397
(dp398
g7
S's'
p399
sg9
g24
sbag1
(g2
g3
Ntp400
Rp401
(dp402
g7
g168
sg9
g29
sbag1
(g2
g3
Ntp403
Rp404
(dp405
g7
g18
sg9
g19
sbag1
(g2
g3
Ntp406
Rp407
(dp408
g7
g87
sg9
g29
sbag1
(g2
g3
Ntp409
Rp410
(dp411
g7
g41
sg9
g19
sbag1
(g2
g3
Ntp412
Rp413
(dp414
g7
g18
sg9
g19
sbag1
(g2
g3
Ntp415
Rp416
(dp417
g7
g18
sg9
g19
sbag1
(g2
g3
Ntp418
Rp419
(dp420
g7
g18
sg9
g19
sbag1
(g2
g3
Ntp421
Rp422
(dp423
g7
g18
sg9
g19
sbag1
(g2
g3
Ntp424
Rp425
(dp426
g7
g18
sg9
g19
sbag1
(g2
g3
Ntp427
Rp428
(dp429
g7
g18
sg9
g19
sbag1
(g2
g3
Ntp430
Rp431
(dp432
g7
g18
sg9
g19
sbag1
(g2
g3
Ntp433
Rp434
(dp435
g7
g18
sg9
g19
sbag1
(g2
g3
Ntp436
Rp437
(dp438
g7
S'int'
p439
sg9
g14
sbag1
(g2
g3
Ntp440
Rp441
(dp442
g7
g18
sg9
g19
sbag1
(g2
g3
Ntp443
Rp444
(dp445
g7
S'ret'
p446
sg9
g24
sbag1
(g2
g3
Ntp447
Rp448
(dp449
g7
g18
sg9
g19
sbag1
(g2
g3
Ntp450
Rp451
(dp452
g7
g212
sg9
g213
sbag1
(g2
g3
Ntp453
Rp454
(dp455
g7
g18
sg9
g19
sbag1
(g2
g3
Ntp456
Rp457
(dp458
g7
S'0'
p459
sg9
S'Literal'
p460
sbag1
(g2
g3
Ntp461
Rp462
(dp463
g7
g37
sg9
g29
sbag1
(g2
g3
Ntp464
Rp465
(dp466
g7
g41
sg9
g19
sbag1
(g2
g3
Ntp467
Rp468
(dp469
g7
g18
sg9
g19
sbag1
(g2
g3
Ntp470
Rp471
(dp472
g7
g18
sg9
g19
sbag1
(g2
g3
Ntp473
Rp474
(dp475
g7
g18
sg9
g19
sbag1
(g2
g3
Ntp476
Rp477
(dp478
g7
g18
sg9
g19
sbag1
(g2
g3
Ntp479
Rp480
(dp481
g7
g18
sg9
g19
sbag1
(g2
g3
Ntp482
Rp483
(dp484
g7
g18
sg9
g19
sbag1
(g2
g3
Ntp485
Rp486
(dp487
g7
g18
sg9
g19
sbag1
(g2
g3
Ntp488
Rp489
(dp490
g7
g18
sg9
g19
sbag1
(g2
g3
Ntp491
Rp492
(dp493
g7
S'boolean'
p494
sg9
g14
sbag1
(g2
g3
Ntp495
Rp496
(dp497
g7
g18
sg9
g19
sbag1
(g2
g3
Ntp498
Rp499
(dp500
g7
S'neg'
p501
sg9
g24
sbag1
(g2
g3
Ntp502
Rp503
(dp504
g7
g18
sg9
g19
sbag1
(g2
g3
Ntp505
Rp506
(dp507
g7
g212
sg9
g213
sbag1
(g2
g3
Ntp508
Rp509
(dp510
g7
g18
sg9
g19
sbag1
(g2
g3
Ntp511
Rp512
(dp513
g7
S'false'
p514
sg9
g460
sbag1
(g2
g3
Ntp515
Rp516
(dp517
g7
g37
sg9
g29
sbag1
(g2
g3
Ntp518
Rp519
(dp520
g7
g41
sg9
g19
sbag1
(g2
g3
Ntp521
Rp522
(dp523
g7
g18
sg9
g19
sbag1
(g2
g3
Ntp524
Rp525
(dp526
g7
g18
sg9
g19
sbag1
(g2
g3
Ntp527
Rp528
(dp529
g7
g18
sg9
g19
sbag1
(g2
g3
Ntp530
Rp531
(dp532
g7
g18
sg9
g19
sbag1
(g2
g3
Ntp533
Rp534
(dp535
g7
g18
sg9
g19
sbag1
(g2
g3
Ntp536
Rp537
(dp538
g7
g18
sg9
g19
sbag1
(g2
g3
Ntp539
Rp540
(dp541
g7
g18
sg9
g19
sbag1
(g2
g3
Ntp542
Rp543
(dp544
g7
g18
sg9
g19
sbag1
(g2
g3
Ntp545
Rp546
(dp547
g7
S'int'
p548
sg9
g14
sbag1
(g2
g3
Ntp549
Rp550
(dp551
g7
g18
sg9
g19
sbag1
(g2
g3
Ntp552
Rp553
(dp554
g7
g164
sg9
g24
sbag1
(g2
g3
Ntp555
Rp556
(dp557
g7
g18
sg9
g19
sbag1
(g2
g3
Ntp558
Rp559
(dp560
g7
g212
sg9
g213
sbag1
(g2
g3
Ntp561
Rp562
(dp563
g7
g18
sg9
g19
sbag1
(g2
g3
Ntp564
Rp565
(dp566
g7
g459
sg9
g460
sbag1
(g2
g3
Ntp567
Rp568
(dp569
g7
g37
sg9
g29
sbag1
(g2
g3
Ntp570
Rp571
(dp572
g7
g41
sg9
g19
sbag1
(g2
g3
Ntp573
Rp574
(dp575
g7
g18
sg9
g19
sbag1
(g2
g3
Ntp576
Rp577
(dp578
g7
g18
sg9
g19
sbag1
(g2
g3
Ntp579
Rp580
(dp581
g7
g18
sg9
g19
sbag1
(g2
g3
Ntp582
Rp583
(dp584
g7
g18
sg9
g19
sbag1
(g2
g3
Ntp585
Rp586
(dp587
g7
g18
sg9
g19
sbag1
(g2
g3
Ntp588
Rp589
(dp590
g7
g18
sg9
g19
sbag1
(g2
g3
Ntp591
Rp592
(dp593
g7
g18
sg9
g19
sbag1
(g2
g3
Ntp594
Rp595
(dp596
g7
g18
sg9
g19
sbag1
(g2
g3
Ntp597
Rp598
(dp599
g7
S'while'
p600
sg9
g14
sbag1
(g2
g3
Ntp601
Rp602
(dp603
g7
g153
sg9
g29
sbag1
(g2
g3
Ntp604
Rp605
(dp606
g7
g164
sg9
g24
sbag1
(g2
g3
Ntp607
Rp608
(dp609
g7
g18
sg9
g19
sbag1
(g2
g3
Ntp610
Rp611
(dp612
g7
S'<'
p613
sg9
g213
sbag1
(g2
g3
Ntp614
Rp615
(dp616
g7
g18
sg9
g19
sbag1
(g2
g3
Ntp617
Rp618
(dp619
g7
g399
sg9
g24
sbag1
(g2
g3
Ntp620
Rp621
(dp622
g7
g28
sg9
g29
sbag1
(g2
g3
Ntp623
Rp624
(dp625
g7
S'length'
p626
sg9
g24
sbag1
(g2
g3
Ntp627
Rp628
(dp629
g7
g153
sg9
g29
sbag1
(g2
g3
Ntp630
Rp631
(dp632
g7
g168
sg9
g29
sbag1
(g2
g3
Ntp633
Rp634
(dp635
g7
g18
sg9
g19
sbag1
(g2
g3
Ntp636
Rp637
(dp638
g7
S'&&'
p639
sg9
g213
sbag1
(g2
g3
Ntp640
Rp641
(dp642
g7
g18
sg9
g19
sbag1
(g2
g3
Ntp643
Rp644
(dp645
g7
g41
sg9
g19
sbag1
(g2
g3
Ntp646
Rp647
(dp648
g7
g18
sg9
g19
sbag1
(g2
g3
Ntp649
Rp650
(dp651
g7
g18
sg9
g19
sbag1
(g2
g3
Ntp652
Rp653
(dp654
g7
g18
sg9
g19
sbag1
(g2
g3
Ntp655
Rp656
(dp657
g7
g18
sg9
g19
sbag1
(g2
g3
Ntp658
Rp659
(dp660
g7
g18
sg9
g19
sbag1
(g2
g3
Ntp661
Rp662
(dp663
g7
g18
sg9
g19
sbag1
(g2
g3
Ntp664
Rp665
(dp666
g7
g18
sg9
g19
sbag1
(g2
g3
Ntp667
Rp668
(dp669
g7
g18
sg9
g19
sbag1
(g2
g3
Ntp670
Rp671
(dp672
g7
g18
sg9
g19
sbag1
(g2
g3
Ntp673
Rp674
(dp675
g7
g18
sg9
g19
sbag1
(g2
g3
Ntp676
Rp677
(dp678
g7
g153
sg9
g29
sbag1
(g2
g3
Ntp679
Rp680
(dp681
g7
g399
sg9
g24
sbag1
(g2
g3
Ntp682
Rp683
(dp684
g7
g28
sg9
g29
sbag1
(g2
g3
Ntp685
Rp686
(dp687
g7
S'charAt'
p688
sg9
g24
sbag1
(g2
g3
Ntp689
Rp690
(dp691
g7
g153
sg9
g29
sbag1
(g2
g3
Ntp692
Rp693
(dp694
g7
g164
sg9
g24
sbag1
(g2
g3
Ntp695
Rp696
(dp697
g7
g168
sg9
g29
sbag1
(g2
g3
Ntp698
Rp699
(dp700
g7
g18
sg9
g19
sbag1
(g2
g3
Ntp701
Rp702
(dp703
g7
S'=='
p704
sg9
g213
sbag1
(g2
g3
Ntp705
Rp706
(dp707
g7
g18
sg9
g19
sbag1
(g2
g3
Ntp708
Rp709
(dp710
g7
S"'-'"
p711
sg9
g460
sbag1
(g2
g3
Ntp712
Rp713
(dp714
g7
g18
sg9
g19
sbag1
(g2
g3
Ntp715
Rp716
(dp717
g7
S'||'
p718
sg9
g213
sbag1
(g2
g3
Ntp719
Rp720
(dp721
g7
g18
sg9
g19
sbag1
(g2
g3
Ntp722
Rp723
(dp724
g7
g153
sg9
g29
sbag1
(g2
g3
Ntp725
Rp726
(dp727
g7
g399
sg9
g24
sbag1
(g2
g3
Ntp728
Rp729
(dp730
g7
g28
sg9
g29
sbag1
(g2
g3
Ntp731
Rp732
(dp733
g7
S'charAt'
p734
sg9
g24
sbag1
(g2
g3
Ntp735
Rp736
(dp737
g7
g153
sg9
g29
sbag1
(g2
g3
Ntp738
Rp739
(dp740
g7
g164
sg9
g24
sbag1
(g2
g3
Ntp741
Rp742
(dp743
g7
g168
sg9
g29
sbag1
(g2
g3
Ntp744
Rp745
(dp746
g7
g18
sg9
g19
sbag1
(g2
g3
Ntp747
Rp748
(dp749
g7
S'>='
p750
sg9
g213
sbag1
(g2
g3
Ntp751
Rp752
(dp753
g7
g18
sg9
g19
sbag1
(g2
g3
Ntp754
Rp755
(dp756
g7
S"'0'"
p757
sg9
g460
sbag1
(g2
g3
Ntp758
Rp759
(dp760
g7
g18
sg9
g19
sbag1
(g2
g3
Ntp761
Rp762
(dp763
g7
S'&&'
p764
sg9
g213
sbag1
(g2
g3
Ntp765
Rp766
(dp767
g7
g18
sg9
g19
sbag1
(g2
g3
Ntp768
Rp769
(dp770
g7
g399
sg9
g24
sbag1
(g2
g3
Ntp771
Rp772
(dp773
g7
g28
sg9
g29
sbag1
(g2
g3
Ntp774
Rp775
(dp776
g7
S'charAt'
p777
sg9
g24
sbag1
(g2
g3
Ntp778
Rp779
(dp780
g7
g153
sg9
g29
sbag1
(g2
g3
Ntp781
Rp782
(dp783
g7
g164
sg9
g24
sbag1
(g2
g3
Ntp784
Rp785
(dp786
g7
g168
sg9
g29
sbag1
(g2
g3
Ntp787
Rp788
(dp789
g7
g18
sg9
g19
sbag1
(g2
g3
Ntp790
Rp791
(dp792
g7
S'<='
p793
sg9
g213
sbag1
(g2
g3
Ntp794
Rp795
(dp796
g7
g18
sg9
g19
sbag1
(g2
g3
Ntp797
Rp798
(dp799
g7
S"'9'"
p800
sg9
g460
sbag1
(g2
g3
Ntp801
Rp802
(dp803
g7
g168
sg9
g29
sbag1
(g2
g3
Ntp804
Rp805
(dp806
g7
g168
sg9
g29
sbag1
(g2
g3
Ntp807
Rp808
(dp809
g7
g168
sg9
g29
sbag1
(g2
g3
Ntp810
Rp811
(dp812
g7
g18
sg9
g19
sbag1
(g2
g3
Ntp813
Rp814
(dp815
g7
g87
sg9
g29
sbag1
(g2
g3
Ntp816
Rp817
(dp818
g7
g41
sg9
g19
sbag1
(g2
g3
Ntp819
Rp820
(dp821
g7
g18
sg9
g19
sbag1
(g2
g3
Ntp822
Rp823
(dp824
g7
g18
sg9
g19
sbag1
(g2
g3
Ntp825
Rp826
(dp827
g7
g18
sg9
g19
sbag1
(g2
g3
Ntp828
Rp829
(dp830
g7
g18
sg9
g19
sbag1
(g2
g3
Ntp831
Rp832
(dp833
g7
g18
sg9
g19
sbag1
(g2
g3
Ntp834
Rp835
(dp836
g7
g18
sg9
g19
sbag1
(g2
g3
Ntp837
Rp838
(dp839
g7
g18
sg9
g19
sbag1
(g2
g3
Ntp840
Rp841
(dp842
g7
g18
sg9
g19
sbag1
(g2
g3
Ntp843
Rp844
(dp845
g7
g18
sg9
g19
sbag1
(g2
g3
Ntp846
Rp847
(dp848
g7
g18
sg9
g19
sbag1
(g2
g3
Ntp849
Rp850
(dp851
g7
g18
sg9
g19
sbag1
(g2
g3
Ntp852
Rp853
(dp854
g7
g18
sg9
g19
sbag1
(g2
g3
Ntp855
Rp856
(dp857
g7
S'if'
p858
sg9
g14
sbag1
(g2
g3
Ntp859
Rp860
(dp861
g7
g153
sg9
g29
sbag1
(g2
g3
Ntp862
Rp863
(dp864
g7
g399
sg9
g24
sbag1
(g2
g3
Ntp865
Rp866
(dp867
g7
g28
sg9
g29
sbag1
(g2
g3
Ntp868
Rp869
(dp870
g7
S'charAt'
p871
sg9
g24
sbag1
(g2
g3
Ntp872
Rp873
(dp874
g7
g153
sg9
g29
sbag1
(g2
g3
Ntp875
Rp876
(dp877
g7
g164
sg9
g24
sbag1
(g2
g3
Ntp878
Rp879
(dp880
g7
g168
sg9
g29
sbag1
(g2
g3
Ntp881
Rp882
(dp883
g7
g18
sg9
g19
sbag1
(g2
g3
Ntp884
Rp885
(dp886
g7
S'=='
p887
sg9
g213
sbag1
(g2
g3
Ntp888
Rp889
(dp890
g7
g18
sg9
g19
sbag1
(g2
g3
Ntp891
Rp892
(dp893
g7
S"'-'"
p894
sg9
g460
sbag1
(g2
g3
Ntp895
Rp896
(dp897
g7
g168
sg9
g29
sbag1
(g2
g3
Ntp898
Rp899
(dp900
g7
g18
sg9
g19
sbag1
(g2
g3
Ntp901
Rp902
(dp903
g7
S'neg'
p904
sg9
g24
sbag1
(g2
g3
Ntp905
Rp906
(dp907
g7
g18
sg9
g19
sbag1
(g2
g3
Ntp908
Rp909
(dp910
g7
g212
sg9
g213
sbag1
(g2
g3
Ntp911
Rp912
(dp913
g7
g18
sg9
g19
sbag1
(g2
g3
Ntp914
Rp915
(dp916
g7
S'!'
p917
sg9
g213
sbag1
(g2
g3
Ntp918
Rp919
(dp920
g7
S'neg'
p921
sg9
g24
sbag1
(g2
g3
Ntp922
Rp923
(dp924
g7
g37
sg9
g29
sbag1
(g2
g3
Ntp925
Rp926
(dp927
g7
g41
sg9
g19
sbag1
(g2
g3
Ntp928
Rp929
(dp930
g7
g18
sg9
g19
sbag1
(g2
g3
Ntp931
Rp932
(dp933
g7
g18
sg9
g19
sbag1
(g2
g3
Ntp934
Rp935
(dp936
g7
g18
sg9
g19
sbag1
(g2
g3
Ntp937
Rp938
(dp939
g7
g18
sg9
g19
sbag1
(g2
g3
Ntp940
Rp941
(dp942
g7
g18
sg9
g19
sbag1
(g2
g3
Ntp943
Rp944
(dp945
g7
g18
sg9
g19
sbag1
(g2
g3
Ntp946
Rp947
(dp948
g7
g18
sg9
g19
sbag1
(g2
g3
Ntp949
Rp950
(dp951
g7
g18
sg9
g19
sbag1
(g2
g3
Ntp952
Rp953
(dp954
g7
g18
sg9
g19
sbag1
(g2
g3
Ntp955
Rp956
(dp957
g7
g18
sg9
g19
sbag1
(g2
g3
Ntp958
Rp959
(dp960
g7
g18
sg9
g19
sbag1
(g2
g3
Ntp961
Rp962
(dp963
g7
g18
sg9
g19
sbag1
(g2
g3
Ntp964
Rp965
(dp966
g7
S'else'
p967
sg9
g14
sbag1
(g2
g3
Ntp968
Rp969
(dp970
g7
g18
sg9
g19
sbag1
(g2
g3
Ntp971
Rp972
(dp973
g7
g87
sg9
g29
sbag1
(g2
g3
Ntp974
Rp975
(dp976
g7
g41
sg9
g19
sbag1
(g2
g3
Ntp977
Rp978
(dp979
g7
g18
sg9
g19
sbag1
(g2
g3
Ntp980
Rp981
(dp982
g7
g18
sg9
g19
sbag1
(g2
g3
Ntp983
Rp984
(dp985
g7
g18
sg9
g19
sbag1
(g2
g3
Ntp986
Rp987
(dp988
g7
g18
sg9
g19
sbag1
(g2
g3
Ntp989
Rp990
(dp991
g7
g18
sg9
g19
sbag1
(g2
g3
Ntp992
Rp993
(dp994
g7
g18
sg9
g19
sbag1
(g2
g3
Ntp995
Rp996
(dp997
g7
g18
sg9
g19
sbag1
(g2
g3
Ntp998
Rp999
(dp1000
g7
g18
sg9
g19
sbag1
(g2
g3
Ntp1001
Rp1002
(dp1003
g7
g18
sg9
g19
sbag1
(g2
g3
Ntp1004
Rp1005
(dp1006
g7
g18
sg9
g19
sbag1
(g2
g3
Ntp1007
Rp1008
(dp1009
g7
g18
sg9
g19
sbag1
(g2
g3
Ntp1010
Rp1011
(dp1012
g7
g18
sg9
g19
sbag1
(g2
g3
Ntp1013
Rp1014
(dp1015
g7
g18
sg9
g19
sbag1
(g2
g3
Ntp1016
Rp1017
(dp1018
g7
g18
sg9
g19
sbag1
(g2
g3
Ntp1019
Rp1020
(dp1021
g7
g18
sg9
g19
sbag1
(g2
g3
Ntp1022
Rp1023
(dp1024
g7
g18
sg9
g19
sbag1
(g2
g3
Ntp1025
Rp1026
(dp1027
g7
S'ret'
p1028
sg9
g24
sbag1
(g2
g3
Ntp1029
Rp1030
(dp1031
g7
g18
sg9
g19
sbag1
(g2
g3
Ntp1032
Rp1033
(dp1034
g7
g212
sg9
g213
sbag1
(g2
g3
Ntp1035
Rp1036
(dp1037
g7
g18
sg9
g19
sbag1
(g2
g3
Ntp1038
Rp1039
(dp1040
g7
S'ret'
p1041
sg9
g24
sbag1
(g2
g3
Ntp1042
Rp1043
(dp1044
g7
g18
sg9
g19
sbag1
(g2
g3
Ntp1045
Rp1046
(dp1047
g7
S'*'
p1048
sg9
g213
sbag1
(g2
g3
Ntp1049
Rp1050
(dp1051
g7
g18
sg9
g19
sbag1
(g2
g3
Ntp1052
Rp1053
(dp1054
g7
S'10'
p1055
sg9
g460
sbag1
(g2
g3
Ntp1056
Rp1057
(dp1058
g7
g18
sg9
g19
sbag1
(g2
g3
Ntp1059
Rp1060
(dp1061
g7
S'+'
p1062
sg9
g213
sbag1
(g2
g3
Ntp1063
Rp1064
(dp1065
g7
g18
sg9
g19
sbag1
(g2
g3
Ntp1066
Rp1067
(dp1068
g7
g399
sg9
g24
sbag1
(g2
g3
Ntp1069
Rp1070
(dp1071
g7
g28
sg9
g29
sbag1
(g2
g3
Ntp1072
Rp1073
(dp1074
g7
S'charAt'
p1075
sg9
g24
sbag1
(g2
g3
Ntp1076
Rp1077
(dp1078
g7
g153
sg9
g29
sbag1
(g2
g3
Ntp1079
Rp1080
(dp1081
g7
g164
sg9
g24
sbag1
(g2
g3
Ntp1082
Rp1083
(dp1084
g7
g168
sg9
g29
sbag1
(g2
g3
Ntp1085
Rp1086
(dp1087
g7
S'-'
p1088
sg9
g213
sbag1
(g2
g3
Ntp1089
Rp1090
(dp1091
g7
S"'0'"
p1092
sg9
g460
sbag1
(g2
g3
Ntp1093
Rp1094
(dp1095
g7
g37
sg9
g29
sbag1
(g2
g3
Ntp1096
Rp1097
(dp1098
g7
g41
sg9
g19
sbag1
(g2
g3
Ntp1099
Rp1100
(dp1101
g7
g18
sg9
g19
sbag1
(g2
g3
Ntp1102
Rp1103
(dp1104
g7
g18
sg9
g19
sbag1
(g2
g3
Ntp1105
Rp1106
(dp1107
g7
g18
sg9
g19
sbag1
(g2
g3
Ntp1108
Rp1109
(dp1110
g7
g18
sg9
g19
sbag1
(g2
g3
Ntp1111
Rp1112
(dp1113
g7
g18
sg9
g19
sbag1
(g2
g3
Ntp1114
Rp1115
(dp1116
g7
g18
sg9
g19
sbag1
(g2
g3
Ntp1117
Rp1118
(dp1119
g7
g18
sg9
g19
sbag1
(g2
g3
Ntp1120
Rp1121
(dp1122
g7
g18
sg9
g19
sbag1
(g2
g3
Ntp1123
Rp1124
(dp1125
g7
g18
sg9
g19
sbag1
(g2
g3
Ntp1126
Rp1127
(dp1128
g7
g18
sg9
g19
sbag1
(g2
g3
Ntp1129
Rp1130
(dp1131
g7
g18
sg9
g19
sbag1
(g2
g3
Ntp1132
Rp1133
(dp1134
g7
g18
sg9
g19
sbag1
(g2
g3
Ntp1135
Rp1136
(dp1137
g7
g241
sg9
g29
sbag1
(g2
g3
Ntp1138
Rp1139
(dp1140
g7
g41
sg9
g19
sbag1
(g2
g3
Ntp1141
Rp1142
(dp1143
g7
g18
sg9
g19
sbag1
(g2
g3
Ntp1144
Rp1145
(dp1146
g7
g18
sg9
g19
sbag1
(g2
g3
Ntp1147
Rp1148
(dp1149
g7
g18
sg9
g19
sbag1
(g2
g3
Ntp1150
Rp1151
(dp1152
g7
g18
sg9
g19
sbag1
(g2
g3
Ntp1153
Rp1154
(dp1155
g7
g18
sg9
g19
sbag1
(g2
g3
Ntp1156
Rp1157
(dp1158
g7
g18
sg9
g19
sbag1
(g2
g3
Ntp1159
Rp1160
(dp1161
g7
g18
sg9
g19
sbag1
(g2
g3
Ntp1162
Rp1163
(dp1164
g7
g18
sg9
g19
sbag1
(g2
g3
Ntp1165
Rp1166
(dp1167
g7
g18
sg9
g19
sbag1
(g2
g3
Ntp1168
Rp1169
(dp1170
g7
g18
sg9
g19
sbag1
(g2
g3
Ntp1171
Rp1172
(dp1173
g7
g18
sg9
g19
sbag1
(g2
g3
Ntp1174
Rp1175
(dp1176
g7
g18
sg9
g19
sbag1
(g2
g3
Ntp1177
Rp1178
(dp1179
g7
g164
sg9
g24
sbag1
(g2
g3
Ntp1180
Rp1181
(dp1182
g7
g18
sg9
g19
sbag1
(g2
g3
Ntp1183
Rp1184
(dp1185
g7
g212
sg9
g213
sbag1
(g2
g3
Ntp1186
Rp1187
(dp1188
g7
g18
sg9
g19
sbag1
(g2
g3
Ntp1189
Rp1190
(dp1191
g7
g164
sg9
g24
sbag1
(g2
g3
Ntp1192
Rp1193
(dp1194
g7
g1062
sg9
g213
sbag1
(g2
g3
Ntp1195
Rp1196
(dp1197
g7
S'1'
p1198
sg9
g460
sbag1
(g2
g3
Ntp1199
Rp1200
(dp1201
g7
g37
sg9
g29
sbag1
(g2
g3
Ntp1202
Rp1203
(dp1204
g7
g41
sg9
g19
sbag1
(g2
g3
Ntp1205
Rp1206
(dp1207
g7
g18
sg9
g19
sbag1
(g2
g3
Ntp1208
Rp1209
(dp1210
g7
g18
sg9
g19
sbag1
(g2
g3
Ntp1211
Rp1212
(dp1213
g7
g18
sg9
g19
sbag1
(g2
g3
Ntp1214
Rp1215
(dp1216
g7
g18
sg9
g19
sbag1
(g2
g3
Ntp1217
Rp1218
(dp1219
g7
g18
sg9
g19
sbag1
(g2
g3
Ntp1220
Rp1221
(dp1222
g7
g18
sg9
g19
sbag1
(g2
g3
Ntp1223
Rp1224
(dp1225
g7
g18
sg9
g19
sbag1
(g2
g3
Ntp1226
Rp1227
(dp1228
g7
g18
sg9
g19
sbag1
(g2
g3
Ntp1229
Rp1230
(dp1231
g7
g241
sg9
g29
sbag1
(g2
g3
Ntp1232
Rp1233
(dp1234
g7
g41
sg9
g19
sbag1
(g2
g3
Ntp1235
Rp1236
(dp1237
g7
g18
sg9
g19
sbag1
(g2
g3
Ntp1238
Rp1239
(dp1240
g7
g18
sg9
g19
sbag1
(g2
g3
Ntp1241
Rp1242
(dp1243
g7
g18
sg9
g19
sbag1
(g2
g3
Ntp1244
Rp1245
(dp1246
g7
g18
sg9
g19
sbag1
(g2
g3
Ntp1247
Rp1248
(dp1249
g7
g18
sg9
g19
sbag1
(g2
g3
Ntp1250
Rp1251
(dp1252
g7
g18
sg9
g19
sbag1
(g2
g3
Ntp1253
Rp1254
(dp1255
g7
g18
sg9
g19
sbag1
(g2
g3
Ntp1256
Rp1257
(dp1258
g7
g18
sg9
g19
sbag1
(g2
g3
Ntp1259
Rp1260
(dp1261
g7
S'if'
p1262
sg9
g14
sbag1
(g2
g3
Ntp1263
Rp1264
(dp1265
g7
g153
sg9
g29
sbag1
(g2
g3
Ntp1266
Rp1267
(dp1268
g7
S'neg'
p1269
sg9
g24
sbag1
(g2
g3
Ntp1270
Rp1271
(dp1272
g7
g168
sg9
g29
sbag1
(g2
g3
Ntp1273
Rp1274
(dp1275
g7
g18
sg9
g19
sbag1
(g2
g3
Ntp1276
Rp1277
(dp1278
g7
S'ret'
p1279
sg9
g24
sbag1
(g2
g3
Ntp1280
Rp1281
(dp1282
g7
g18
sg9
g19
sbag1
(g2
g3
Ntp1283
Rp1284
(dp1285
g7
g212
sg9
g213
sbag1
(g2
g3
Ntp1286
Rp1287
(dp1288
g7
g18
sg9
g19
sbag1
(g2
g3
Ntp1289
Rp1290
(dp1291
g7
g1088
sg9
g213
sbag1
(g2
g3
Ntp1292
Rp1293
(dp1294
g7
S'ret'
p1295
sg9
g24
sbag1
(g2
g3
Ntp1296
Rp1297
(dp1298
g7
g37
sg9
g29
sbag1
(g2
g3
Ntp1299
Rp1300
(dp1301
g7
g41
sg9
g19
sbag1
(g2
g3
Ntp1302
Rp1303
(dp1304
g7
g18
sg9
g19
sbag1
(g2
g3
Ntp1305
Rp1306
(dp1307
g7
g18
sg9
g19
sbag1
(g2
g3
Ntp1308
Rp1309
(dp1310
g7
g18
sg9
g19
sbag1
(g2
g3
Ntp1311
Rp1312
(dp1313
g7
g18
sg9
g19
sbag1
(g2
g3
Ntp1314
Rp1315
(dp1316
g7
g18
sg9
g19
sbag1
(g2
g3
Ntp1317
Rp1318
(dp1319
g7
g18
sg9
g19
sbag1
(g2
g3
Ntp1320
Rp1321
(dp1322
g7
g18
sg9
g19
sbag1
(g2
g3
Ntp1323
Rp1324
(dp1325
g7
g18
sg9
g19
sbag1
(g2
g3
Ntp1326
Rp1327
(dp1328
g7
S'return'
p1329
sg9
g14
sbag1
(g2
g3
Ntp1330
Rp1331
(dp1332
g7
g18
sg9
g19
sbag1
(g2
g3
Ntp1333
Rp1334
(dp1335
g7
S'ret'
p1336
sg9
g24
sbag1
(g2
g3
Ntp1337
Rp1338
(dp1339
g7
g37
sg9
g29
sbag1
(g2
g3
Ntp1340
Rp1341
(dp1342
g7
g41
sg9
g19
sbag1
(g2
g3
Ntp1343
Rp1344
(dp1345
g7
g18
sg9
g19
sbag1
(g2
g3
Ntp1346
Rp1347
(dp1348
g7
g18
sg9
g19
sbag1
(g2
g3
Ntp1349
Rp1350
(dp1351
g7
g18
sg9
g19
sbag1
(g2
g3
Ntp1352
Rp1353
(dp1354
g7
g18
sg9
g19
sbag1
(g2
g3
Ntp1355
Rp1356
(dp1357
g7
g241
sg9
g29
sbag1
(g2
g3
Ntp1358
Rp1359
(dp1360
g7
g41
sg9
g19
sbag1
(g2
g3
Ntp1361
Rp1362
(dp1363
g7
g18
sg9
g19
sbag1
(g2
g3
Ntp1364
Rp1365
(dp1366
g7
g18
sg9
g19
sbag1
(g2
g3
Ntp1367
Rp1368
(dp1369
g7
g18
sg9
g19
sbag1
(g2
g3
Ntp1370
Rp1371
(dp1372
g7
g18
sg9
g19
sbag1
(g2
g3
Ntp1373
Rp1374
(dp1375
g7
S'public'
p1376
sg9
g14
sbag1
(g2
g3
Ntp1377
Rp1378
(dp1379
g7
g18
sg9
g19
sbag1
(g2
g3
Ntp1380
Rp1381
(dp1382
g7
S'Integer'
p1383
sg9
g24
sbag1
(g2
g3
Ntp1384
Rp1385
(dp1386
g7
g153
sg9
g29
sbag1
(g2
g3
Ntp1387
Rp1388
(dp1389
g7
S'String'
p1390
sg9
g24
sbag1
(g2
g3
Ntp1391
Rp1392
(dp1393
g7
g18
sg9
g19
sbag1
(g2
g3
Ntp1394
Rp1395
(dp1396
g7
g399
sg9
g24
sbag1
(g2
g3
Ntp1397
Rp1398
(dp1399
g7
g168
sg9
g29
sbag1
(g2
g3
Ntp1400
Rp1401
(dp1402
g7
g18
sg9
g19
sbag1
(g2
g3
Ntp1403
Rp1404
(dp1405
g7
g87
sg9
g29
sbag1
(g2
g3
Ntp1406
Rp1407
(dp1408
g7
g41
sg9
g19
sbag1
(g2
g3
Ntp1409
Rp1410
(dp1411
g7
g18
sg9
g19
sbag1
(g2
g3
Ntp1412
Rp1413
(dp1414
g7
g18
sg9
g19
sbag1
(g2
g3
Ntp1415
Rp1416
(dp1417
g7
g18
sg9
g19
sbag1
(g2
g3
Ntp1418
Rp1419
(dp1420
g7
g18
sg9
g19
sbag1
(g2
g3
Ntp1421
Rp1422
(dp1423
g7
g18
sg9
g19
sbag1
(g2
g3
Ntp1424
Rp1425
(dp1426
g7
g18
sg9
g19
sbag1
(g2
g3
Ntp1427
Rp1428
(dp1429
g7
g18
sg9
g19
sbag1
(g2
g3
Ntp1430
Rp1431
(dp1432
g7
g18
sg9
g19
sbag1
(g2
g3
Ntp1433
Rp1434
(dp1435
g7
S'value'
p1436
sg9
g24
sbag1
(g2
g3
Ntp1437
Rp1438
(dp1439
g7
g18
sg9
g19
sbag1
(g2
g3
Ntp1440
Rp1441
(dp1442
g7
g212
sg9
g213
sbag1
(g2
g3
Ntp1443
Rp1444
(dp1445
g7
g18
sg9
g19
sbag1
(g2
g3
Ntp1446
Rp1447
(dp1448
g7
S'Integer'
p1449
sg9
g24
sbag1
(g2
g3
Ntp1450
Rp1451
(dp1452
g7
g28
sg9
g29
sbag1
(g2
g3
Ntp1453
Rp1454
(dp1455
g7
S'parseInt'
p1456
sg9
g24
sbag1
(g2
g3
Ntp1457
Rp1458
(dp1459
g7
g153
sg9
g29
sbag1
(g2
g3
Ntp1460
Rp1461
(dp1462
g7
g399
sg9
g24
sbag1
(g2
g3
Ntp1463
Rp1464
(dp1465
g7
g168
sg9
g29
sbag1
(g2
g3
Ntp1466
Rp1467
(dp1468
g7
g37
sg9
g29
sbag1
(g2
g3
Ntp1469
Rp1470
(dp1471
g7
g41
sg9
g19
sbag1
(g2
g3
Ntp1472
Rp1473
(dp1474
g7
g18
sg9
g19
sbag1
(g2
g3
Ntp1475
Rp1476
(dp1477
g7
g18
sg9
g19
sbag1
(g2
g3
Ntp1478
Rp1479
(dp1480
g7
g18
sg9
g19
sbag1
(g2
g3
Ntp1481
Rp1482
(dp1483
g7
g18
sg9
g19
sbag1
(g2
g3
Ntp1484
Rp1485
(dp1486
g7
g241
sg9
g29
sbag1
(g2
g3
Ntp1487
Rp1488
(dp1489
g7
g41
sg9
g19
sbag1
(g2
g3
Ntp1490
Rp1491
(dp1492
g7
g18
sg9
g19
sbag1
(g2
g3
Ntp1493
Rp1494
(dp1495
g7
g18
sg9
g19
sbag1
(g2
g3
Ntp1496
Rp1497
(dp1498
g7
g18
sg9
g19
sbag1
(g2
g3
Ntp1499
Rp1500
(dp1501
g7
g18
sg9
g19
sbag1
(g2
g3
Ntp1502
Rp1503
(dp1504
g7
S'public'
p1505
sg9
g14
sbag1
(g2
g3
Ntp1506
Rp1507
(dp1508
g7
g18
sg9
g19
sbag1
(g2
g3
Ntp1509
Rp1510
(dp1511
g7
S'Integer'
p1512
sg9
g24
sbag1
(g2
g3
Ntp1513
Rp1514
(dp1515
g7
g153
sg9
g29
sbag1
(g2
g3
Ntp1516
Rp1517
(dp1518
g7
g168
sg9
g29
sbag1
(g2
g3
Ntp1519
Rp1520
(dp1521
g7
g18
sg9
g19
sbag1
(g2
g3
Ntp1522
Rp1523
(dp1524
g7
g87
sg9
g29
sbag1
(g2
g3
Ntp1525
Rp1526
(dp1527
g7
g41
sg9
g19
sbag1
(g2
g3
Ntp1528
Rp1529
(dp1530
g7
g18
sg9
g19
sbag1
(g2
g3
Ntp1531
Rp1532
(dp1533
g7
g18
sg9
g19
sbag1
(g2
g3
Ntp1534
Rp1535
(dp1536
g7
g18
sg9
g19
sbag1
(g2
g3
Ntp1537
Rp1538
(dp1539
g7
g18
sg9
g19
sbag1
(g2
g3
Ntp1540
Rp1541
(dp1542
g7
g18
sg9
g19
sbag1
(g2
g3
Ntp1543
Rp1544
(dp1545
g7
g18
sg9
g19
sbag1
(g2
g3
Ntp1546
Rp1547
(dp1548
g7
g18
sg9
g19
sbag1
(g2
g3
Ntp1549
Rp1550
(dp1551
g7
g18
sg9
g19
sbag1
(g2
g3
Ntp1552
Rp1553
(dp1554
g7
S'value'
p1555
sg9
g24
sbag1
(g2
g3
Ntp1556
Rp1557
(dp1558
g7
g18
sg9
g19
sbag1
(g2
g3
Ntp1559
Rp1560
(dp1561
g7
g212
sg9
g213
sbag1
(g2
g3
Ntp1562
Rp1563
(dp1564
g7
g18
sg9
g19
sbag1
(g2
g3
Ntp1565
Rp1566
(dp1567
g7
g459
sg9
g460
sbag1
(g2
g3
Ntp1568
Rp1569
(dp1570
g7
g37
sg9
g29
sbag1
(g2
g3
Ntp1571
Rp1572
(dp1573
g7
g41
sg9
g19
sbag1
(g2
g3
Ntp1574
Rp1575
(dp1576
g7
g18
sg9
g19
sbag1
(g2
g3
Ntp1577
Rp1578
(dp1579
g7
g18
sg9
g19
sbag1
(g2
g3
Ntp1580
Rp1581
(dp1582
g7
g18
sg9
g19
sbag1
(g2
g3
Ntp1583
Rp1584
(dp1585
g7
g18
sg9
g19
sbag1
(g2
g3
Ntp1586
Rp1587
(dp1588
g7
g241
sg9
g29
sbag1
(g2
g3
Ntp1589
Rp1590
(dp1591
g7
g41
sg9
g19
sbag1
(g2
g3
Ntp1592
Rp1593
(dp1594
g7
g18
sg9
g19
sbag1
(g2
g3
Ntp1595
Rp1596
(dp1597
g7
g18
sg9
g19
sbag1
(g2
g3
Ntp1598
Rp1599
(dp1600
g7
g18
sg9
g19
sbag1
(g2
g3
Ntp1601
Rp1602
(dp1603
g7
g18
sg9
g19
sbag1
(g2
g3
Ntp1604
Rp1605
(dp1606
g7
S'public'
p1607
sg9
g14
sbag1
(g2
g3
Ntp1608
Rp1609
(dp1610
g7
g18
sg9
g19
sbag1
(g2
g3
Ntp1611
Rp1612
(dp1613
g7
S'String'
p1614
sg9
g24
sbag1
(g2
g3
Ntp1615
Rp1616
(dp1617
g7
g18
sg9
g19
sbag1
(g2
g3
Ntp1618
Rp1619
(dp1620
g7
S'toString'
p1621
sg9
g24
sbag1
(g2
g3
Ntp1622
Rp1623
(dp1624
g7
g153
sg9
g29
sbag1
(g2
g3
Ntp1625
Rp1626
(dp1627
g7
g168
sg9
g29
sbag1
(g2
g3
Ntp1628
Rp1629
(dp1630
g7
g18
sg9
g19
sbag1
(g2
g3
Ntp1631
Rp1632
(dp1633
g7
g87
sg9
g29
sbag1
(g2
g3
Ntp1634
Rp1635
(dp1636
g7
g41
sg9
g19
sbag1
(g2
g3
Ntp1637
Rp1638
(dp1639
g7
g18
sg9
g19
sbag1
(g2
g3
Ntp1640
Rp1641
(dp1642
g7
g18
sg9
g19
sbag1
(g2
g3
Ntp1643
Rp1644
(dp1645
g7
g18
sg9
g19
sbag1
(g2
g3
Ntp1646
Rp1647
(dp1648
g7
g18
sg9
g19
sbag1
(g2
g3
Ntp1649
Rp1650
(dp1651
g7
g18
sg9
g19
sbag1
(g2
g3
Ntp1652
Rp1653
(dp1654
g7
g18
sg9
g19
sbag1
(g2
g3
Ntp1655
Rp1656
(dp1657
g7
g18
sg9
g19
sbag1
(g2
g3
Ntp1658
Rp1659
(dp1660
g7
g18
sg9
g19
sbag1
(g2
g3
Ntp1661
Rp1662
(dp1663
g7
S'return'
p1664
sg9
g14
sbag1
(g2
g3
Ntp1665
Rp1666
(dp1667
g7
g18
sg9
g19
sbag1
(g2
g3
Ntp1668
Rp1669
(dp1670
g7
S'String'
p1671
sg9
g24
sbag1
(g2
g3
Ntp1672
Rp1673
(dp1674
g7
g28
sg9
g29
sbag1
(g2
g3
Ntp1675
Rp1676
(dp1677
g7
S'valueOf'
p1678
sg9
g24
sbag1
(g2
g3
Ntp1679
Rp1680
(dp1681
g7
g153
sg9
g29
sbag1
(g2
g3
Ntp1682
Rp1683
(dp1684
g7
S'value'
p1685
sg9
g24
sbag1
(g2
g3
Ntp1686
Rp1687
(dp1688
g7
g168
sg9
g29
sbag1
(g2
g3
Ntp1689
Rp1690
(dp1691
g7
g37
sg9
g29
sbag1
(g2
g3
Ntp1692
Rp1693
(dp1694
g7
g41
sg9
g19
sbag1
(g2
g3
Ntp1695
Rp1696
(dp1697
g7
g18
sg9
g19
sbag1
(g2
g3
Ntp1698
Rp1699
(dp1700
g7
g18
sg9
g19
sbag1
(g2
g3
Ntp1701
Rp1702
(dp1703
g7
g18
sg9
g19
sbag1
(g2
g3
Ntp1704
Rp1705
(dp1706
g7
g18
sg9
g19
sbag1
(g2
g3
Ntp1707
Rp1708
(dp1709
g7
g241
sg9
g29
sbag1
(g2
g3
Ntp1710
Rp1711
(dp1712
g7
g41
sg9
g19
sbag1
(g2
g3
Ntp1713
Rp1714
(dp1715
g7
g18
sg9
g19
sbag1
(g2
g3
Ntp1716
Rp1717
(dp1718
g7
g18
sg9
g19
sbag1
(g2
g3
Ntp1719
Rp1720
(dp1721
g7
g18
sg9
g19
sbag1
(g2
g3
Ntp1722
Rp1723
(dp1724
g7
g18
sg9
g19
sbag1
(g2
g3
Ntp1725
Rp1726
(dp1727
g7
S'public'
p1728
sg9
g14
sbag1
(g2
g3
Ntp1729
Rp1730
(dp1731
g7
g18
sg9
g19
sbag1
(g2
g3
Ntp1732
Rp1733
(dp1734
g7
S'static'
p1735
sg9
g14
sbag1
(g2
g3
Ntp1736
Rp1737
(dp1738
g7
g18
sg9
g19
sbag1
(g2
g3
Ntp1739
Rp1740
(dp1741
g7
S'int'
p1742
sg9
g14
sbag1
(g2
g3
Ntp1743
Rp1744
(dp1745
g7
g18
sg9
g19
sbag1
(g2
g3
Ntp1746
Rp1747
(dp1748
g7
S'MAX_VALUE'
p1749
sg9
g24
sbag1
(g2
g3
Ntp1750
Rp1751
(dp1752
g7
g18
sg9
g19
sbag1
(g2
g3
Ntp1753
Rp1754
(dp1755
g7
g212
sg9
g213
sbag1
(g2
g3
Ntp1756
Rp1757
(dp1758
g7
g18
sg9
g19
sbag1
(g2
g3
Ntp1759
Rp1760
(dp1761
g7
S'2147483647'
p1762
sg9
g460
sbag1
(g2
g3
Ntp1763
Rp1764
(dp1765
g7
g37
sg9
g29
sbag1
(g2
g3
Ntp1766
Rp1767
(dp1768
g7
g41
sg9
g19
sbag1
(g2
g3
Ntp1769
Rp1770
(dp1771
g7
g241
sg9
g29
sbag1
(g2
g3
Ntp1772
Rp1773
(dp1774
g7
g41
sg9
g19
sbag1
(g2
g3
Ntp1775
Rp1776
(dp1777
g7
S'EOF'
p1778
sg9
g1778
sba.