(lp0
ccopy_reg
_reconstructor
p1
(cscanner.scanner
Token
p2
c__builtin__
object
p3
Ntp4
Rp5
(dp6
S'lexeme'
p7
S'BOF'
p8
sS'type'
p9
g8
sbag1
(g2
g3
Ntp10
Rp11
(dp12
g7
S'package'
p13
sg9
S'Keyword'
p14
sbag1
(g2
g3
Ntp15
Rp16
(dp17
g7
S' '
p18
sg9
S'Whitespace'
p19
sbag1
(g2
g3
Ntp20
Rp21
(dp22
g7
S'java'
p23
sg9
S'Identifier'
p24
sbag1
(g2
g3
Ntp25
Rp26
(dp27
g7
S'.'
p28
sg9
S'Separator'
p29
sbag1
(g2
g3
Ntp30
Rp31
(dp32
g7
S'lang'
p33
sg9
g24
sbag1
(g2
g3
Ntp34
Rp35
(dp36
g7
S';'
p37
sg9
g29
sbag1
(g2
g3
Ntp38
Rp39
(dp40
g7
S'\n'
p41
sg9
g19
sbag1
(g2
g3
Ntp42
Rp43
(dp44
g7
S'public'
p45
sg9
g14
sbag1
(g2
g3
Ntp46
Rp47
(dp48
g7
g18
sg9
g19
sbag1
(g2
g3
Ntp49
Rp50
(dp51
g7
S'class'
p52
sg9
g14
sbag1
(g2
g3
Ntp53
Rp54
(dp55
g7
g18
sg9
g19
sbag1
(g2
g3
Ntp56
Rp57
(dp58
g7
S'Object'
p59
sg9
g24
sbag1
(g2
g3
Ntp60
Rp61
(dp62
g7
g18
sg9
g19
sbag1
(g2
g3
Ntp63
Rp64
(dp65
g7
S'{'
p66
sg9
g29
sbag1
(g2
g3
Ntp67
Rp68
(dp69
g7
g41
sg9
g19
sbag1
(g2
g3
Ntp70
Rp71
(dp72
g7
g18
sg9
g19
sbag1
(g2
g3
Ntp73
Rp74
(dp75
g7
g18
sg9
g19
sbag1
(g2
g3
Ntp76
Rp77
(dp78
g7
g18
sg9
g19
sbag1
(g2
g3
Ntp79
Rp80
(dp81
g7
g18
sg9
g19
sbag1
(g2
g3
Ntp82
Rp83
(dp84
g7
S'public'
p85
sg9
g14
sbag1
(g2
g3
Ntp86
Rp87
(dp88
g7
g18
sg9
g19
sbag1
(g2
g3
Ntp89
Rp90
(dp91
g7
S'Object'
p92
sg9
g24
sbag1
(g2
g3
Ntp93
Rp94
(dp95
g7
S'('
p96
sg9
g29
sbag1
(g2
g3
Ntp97
Rp98
(dp99
g7
S')'
p100
sg9
g29
sbag1
(g2
g3
Ntp101
Rp102
(dp103
g7
g18
sg9
g19
sbag1
(g2
g3
Ntp104
Rp105
(dp106
g7
g66
sg9
g29
sbag1
(g2
g3
Ntp107
Rp108
(dp109
g7
g41
sg9
g19
sbag1
(g2
g3
Ntp110
Rp111
(dp112
g7
g18
sg9
g19
sbag1
(g2
g3
Ntp113
Rp114
(dp115
g7
g18
sg9
g19
sbag1
(g2
g3
Ntp116
Rp117
(dp118
g7
g18
sg9
g19
sbag1
(g2
g3
Ntp119
Rp120
(dp121
g7
g18
sg9
g19
sbag1
(g2
g3
Ntp122
Rp123
(dp124
g7
S'}'
p125
sg9
g29
sbag1
(g2
g3
Ntp126
Rp127
(dp128
g7
g41
sg9
g19
sbag1
(g2
g3
Ntp129
Rp130
(dp131
g7
g18
sg9
g19
sbag1
(g2
g3
Ntp132
Rp133
(dp134
g7
g18
sg9
g19
sbag1
(g2
g3
Ntp135
Rp136
(dp137
g7
g18
sg9
g19
sbag1
(g2
g3
Ntp138
Rp139
(dp140
g7
g18
sg9
g19
sbag1
(g2
g3
Ntp141
Rp142
(dp143
g7
S'public'
p144
sg9
g14
sbag1
(g2
g3
Ntp145
Rp146
(dp147
g7
g18
sg9
g19
sbag1
(g2
g3
Ntp148
Rp149
(dp150
g7
S'boolean'
p151
sg9
g14
sbag1
(g2
g3
Ntp152
Rp153
(dp154
g7
g18
sg9
g19
sbag1
(g2
g3
Ntp155
Rp156
(dp157
g7
S'equals'
p158
sg9
g24
sbag1
(g2
g3
Ntp159
Rp160
(dp161
g7
g96
sg9
g29
sbag1
(g2
g3
Ntp162
Rp163
(dp164
g7
S'Object'
p165
sg9
g24
sbag1
(g2
g3
Ntp166
Rp167
(dp168
g7
g18
sg9
g19
sbag1
(g2
g3
Ntp169
Rp170
(dp171
g7
S'other'
p172
sg9
g24
sbag1
(g2
g3
Ntp173
Rp174
(dp175
g7
g100
sg9
g29
sbag1
(g2
g3
Ntp176
Rp177
(dp178
g7
g18
sg9
g19
sbag1
(g2
g3
Ntp179
Rp180
(dp181
g7
g66
sg9
g29
sbag1
(g2
g3
Ntp182
Rp183
(dp184
g7
g41
sg9
g19
sbag1
(g2
g3
Ntp185
Rp186
(dp187
g7
g18
sg9
g19
sbag1
(g2
g3
Ntp188
Rp189
(dp190
g7
g18
sg9
g19
sbag1
(g2
g3
Ntp191
Rp192
(dp193
g7
g18
sg9
g19
sbag1
(g2
g3
Ntp194
Rp195
(dp196
g7
g18
sg9
g19
sbag1
(g2
g3
Ntp197
Rp198
(dp199
g7
g18
sg9
g19
sbag1
(g2
g3
Ntp200
Rp201
(dp202
g7
g18
sg9
g19
sbag1
(g2
g3
Ntp203
Rp204
(dp205
g7
g18
sg9
g19
sbag1
(g2
g3
Ntp206
Rp207
(dp208
g7
g18
sg9
g19
sbag1
(g2
g3
Ntp209
Rp210
(dp211
g7
S'return'
p212
sg9
g14
sbag1
(g2
g3
Ntp213
Rp214
(dp215
g7
g18
sg9
g19
sbag1
(g2
g3
Ntp216
Rp217
(dp218
g7
S'this'
p219
sg9
g14
sbag1
(g2
g3
Ntp220
Rp221
(dp222
g7
g18
sg9
g19
sbag1
(g2
g3
Ntp223
Rp224
(dp225
g7
S'=='
p226
sg9
S'Operator'
p227
sbag1
(g2
g3
Ntp228
Rp229
(dp230
g7
g18
sg9
g19
sbag1
(g2
g3
Ntp231
Rp232
(dp233
g7
S'other'
p234
sg9
g24
sbag1
(g2
g3
Ntp235
Rp236
(dp237
g7
g37
sg9
g29
sbag1
(g2
g3
Ntp238
Rp239
(dp240
g7
g41
sg9
g19
sbag1
(g2
g3
Ntp241
Rp242
(dp243
g7
g18
sg9
g19
sbag1
(g2
g3
Ntp244
Rp245
(dp246
g7
g18
sg9
g19
sbag1
(g2
g3
Ntp247
Rp248
(dp249
g7
g18
sg9
g19
sbag1
(g2
g3
Ntp250
Rp251
(dp252
g7
g18
sg9
g19
sbag1
(g2
g3
Ntp253
Rp254
(dp255
g7
g125
sg9
g29
sbag1
(g2
g3
Ntp256
Rp257
(dp258
g7
g41
sg9
g19
sbag1
(g2
g3
Ntp259
Rp260
(dp261
g7
g18
sg9
g19
sbag1
(g2
g3
Ntp262
Rp263
(dp264
g7
g18
sg9
g19
sbag1
(g2
g3
Ntp265
Rp266
(dp267
g7
g18
sg9
g19
sbag1
(g2
g3
Ntp268
Rp269
(dp270
g7
g18
sg9
g19
sbag1
(g2
g3
Ntp271
Rp272
(dp273
g7
S'public'
p274
sg9
g14
sbag1
(g2
g3
Ntp275
Rp276
(dp277
g7
g18
sg9
g19
sbag1
(g2
g3
Ntp278
Rp279
(dp280
g7
S'String'
p281
sg9
g24
sbag1
(g2
g3
Ntp282
Rp283
(dp284
g7
g18
sg9
g19
sbag1
(g2
g3
Ntp285
Rp286
(dp287
g7
S'toString'
p288
sg9
g24
sbag1
(g2
g3
Ntp289
Rp290
(dp291
g7
g96
sg9
g29
sbag1
(g2
g3
Ntp292
Rp293
(dp294
g7
g100
sg9
g29
sbag1
(g2
g3
Ntp295
Rp296
(dp297
g7
g18
sg9
g19
sbag1
(g2
g3
Ntp298
Rp299
(dp300
g7
g66
sg9
g29
sbag1
(g2
g3
Ntp301
Rp302
(dp303
g7
g41
sg9
g19
sbag1
(g2
g3
Ntp304
Rp305
(dp306
g7
g18
sg9
g19
sbag1
(g2
g3
Ntp307
Rp308
(dp309
g7
g18
sg9
g19
sbag1
(g2
g3
Ntp310
Rp311
(dp312
g7
g18
sg9
g19
sbag1
(g2
g3
Ntp313
Rp314
(dp315
g7
g18
sg9
g19
sbag1
(g2
g3
Ntp316
Rp317
(dp318
g7
g18
sg9
g19
sbag1
(g2
g3
Ntp319
Rp320
(dp321
g7
g18
sg9
g19
sbag1
(g2
g3
Ntp322
Rp323
(dp324
g7
g18
sg9
g19
sbag1
(g2
g3
Ntp325
Rp326
(dp327
g7
g18
sg9
g19
sbag1
(g2
g3
Ntp328
Rp329
(dp330
g7
S'return'
p331
sg9
g14
sbag1
(g2
g3
Ntp332
Rp333
(dp334
g7
g18
sg9
g19
sbag1
(g2
g3
Ntp335
Rp336
(dp337
g7
S'"Some random object"'
p338
sg9
S'Literal'
p339
sbag1
(g2
g3
Ntp340
Rp341
(dp342
g7
g37
sg9
g29
sbag1
(g2
g3
Ntp343
Rp344
(dp345
g7
g41
sg9
g19
sbag1
(g2
g3
Ntp346
Rp347
(dp348
g7
g18
sg9
g19
sbag1
(g2
g3
Ntp349
Rp350
(dp351
g7
g18
sg9
g19
sbag1
(g2
g3
Ntp352
Rp353
(dp354
g7
g18
sg9
g19
sbag1
(g2
g3
Ntp355
Rp356
(dp357
g7
g18
sg9
g19
sbag1
(g2
g3
Ntp358
Rp359
(dp360
g7
g125
sg9
g29
sbag1
(g2
g3
Ntp361
Rp362
(dp363
g7
g41
sg9
g19
sbag1
(g2
g3
Ntp364
Rp365
(dp366
g7
g18
sg9
g19
sbag1
(g2
g3
Ntp367
Rp368
(dp369
g7
g18
sg9
g19
sbag1
(g2
g3
Ntp370
Rp371
(dp372
g7
g18
sg9
g19
sbag1
(g2
g3
Ntp373
Rp374
(dp375
g7
g18
sg9
g19
sbag1
(g2
g3
Ntp376
Rp377
(dp378
g7
S'public'
p379
sg9
g14
sbag1
(g2
g3
Ntp380
Rp381
(dp382
g7
g18
sg9
g19
sbag1
(g2
g3
Ntp383
Rp384
(dp385
g7
S'int'
p386
sg9
g14
sbag1
(g2
g3
Ntp387
Rp388
(dp389
g7
g18
sg9
g19
sbag1
(g2
g3
Ntp390
Rp391
(dp392
g7
S'hashCode'
p393
sg9
g24
sbag1
(g2
g3
Ntp394
Rp395
(dp396
g7
g96
sg9
g29
sbag1
(g2
g3
Ntp397
Rp398
(dp399
g7
g100
sg9
g29
sbag1
(g2
g3
Ntp400
Rp401
(dp402
g7
g18
sg9
g19
sbag1
(g2
g3
Ntp403
Rp404
(dp405
g7
g66
sg9
g29
sbag1
(g2
g3
Ntp406
Rp407
(dp408
g7
g41
sg9
g19
sbag1
(g2
g3
Ntp409
Rp410
(dp411
g7
g18
sg9
g19
sbag1
(g2
g3
Ntp412
Rp413
(dp414
g7
g18
sg9
g19
sbag1
(g2
g3
Ntp415
Rp416
(dp417
g7
g18
sg9
g19
sbag1
(g2
g3
Ntp418
Rp419
(dp420
g7
g18
sg9
g19
sbag1
(g2
g3
Ntp421
Rp422
(dp423
g7
g18
sg9
g19
sbag1
(g2
g3
Ntp424
Rp425
(dp426
g7
g18
sg9
g19
sbag1
(g2
g3
Ntp427
Rp428
(dp429
g7
g18
sg9
g19
sbag1
(g2
g3
Ntp430
Rp431
(dp432
g7
g18
sg9
g19
sbag1
(g2
g3
Ntp433
Rp434
(dp435
g7
S'return'
p436
sg9
g14
sbag1
(g2
g3
Ntp437
Rp438
(dp439
g7
g18
sg9
g19
sbag1
(g2
g3
Ntp440
Rp441
(dp442
g7
S'42'
p443
sg9
g339
sbag1
(g2
g3
Ntp444
Rp445
(dp446
g7
g37
sg9
g29
sbag1
(g2
g3
Ntp447
Rp448
(dp449
g7
g41
sg9
g19
sbag1
(g2
g3
Ntp450
Rp451
(dp452
g7
g18
sg9
g19
sbag1
(g2
g3
Ntp453
Rp454
(dp455
g7
g18
sg9
g19
sbag1
(g2
g3
Ntp456
Rp457
(dp458
g7
g18
sg9
g19
sbag1
(g2
g3
Ntp459
Rp460
(dp461
g7
g18
sg9
g19
sbag1
(g2
g3
Ntp462
Rp463
(dp464
g7
g125
sg9
g29
sbag1
(g2
g3
Ntp465
Rp466
(dp467
g7
g41
sg9
g19
sbag1
(g2
g3
Ntp468
Rp469
(dp470
g7
g18
sg9
g19
sbag1
(g2
g3
Ntp471
Rp472
(dp473
g7
g18
sg9
g19
sbag1
(g2
g3
Ntp474
Rp475
(dp476
g7
g18
sg9
g19
sbag1
(g2
g3
Ntp477
Rp478
(dp479
g7
g18
sg9
g19
sbag1
(g2
g3
Ntp480
Rp481
(dp482
g7
S'protected'
p483
sg9
g14
sbag1
(g2
g3
Ntp484
Rp485
(dp486
g7
g18
sg9
g19
sbag1
(g2
g3
Ntp487
Rp488
(dp489
g7
S'Object'
p490
sg9
g24
sbag1
(g2
g3
Ntp491
Rp492
(dp493
g7
g18
sg9
g19
sbag1
(g2
g3
Ntp494
Rp495
(dp496
g7
S'clone'
p497
sg9
g24
sbag1
(g2
g3
Ntp498
Rp499
(dp500
g7
g96
sg9
g29
sbag1
(g2
g3
Ntp501
Rp502
(dp503
g7
g100
sg9
g29
sbag1
(g2
g3
Ntp504
Rp505
(dp506
g7
g18
sg9
g19
sbag1
(g2
g3
Ntp507
Rp508
(dp509
g7
g66
sg9
g29
sbag1
(g2
g3
Ntp510
Rp511
(dp512
g7
g41
sg9
g19
sbag1
(g2
g3
Ntp513
Rp514
(dp515
g7
g18
sg9
g19
sbag1
(g2
g3
Ntp516
Rp517
(dp518
g7
g18
sg9
g19
sbag1
(g2
g3
Ntp519
Rp520
(dp521
g7
g18
sg9
g19
sbag1
(g2
g3
Ntp522
Rp523
(dp524
g7
g18
sg9
g19
sbag1
(g2
g3
Ntp525
Rp526
(dp527
g7
g18
sg9
g19
sbag1
(g2
g3
Ntp528
Rp529
(dp530
g7
g18
sg9
g19
sbag1
(g2
g3
Ntp531
Rp532
(dp533
g7
g18
sg9
g19
sbag1
(g2
g3
Ntp534
Rp535
(dp536
g7
g18
sg9
g19
sbag1
(g2
g3
Ntp537
Rp538
(dp539
g7
S'return'
p540
sg9
g14
sbag1
(g2
g3
Ntp541
Rp542
(dp543
g7
g18
sg9
g19
sbag1
(g2
g3
Ntp544
Rp545
(dp546
g7
S'this'
p547
sg9
g14
sbag1
(g2
g3
Ntp548
Rp549
(dp550
g7
g37
sg9
g29
sbag1
(g2
g3
Ntp551
Rp552
(dp553
g7
g41
sg9
g19
sbag1
(g2
g3
Ntp554
Rp555
(dp556
g7
g18
sg9
g19
sbag1
(g2
g3
Ntp557
Rp558
(dp559
g7
g18
sg9
g19
sbag1
(g2
g3
Ntp560
Rp561
(dp562
g7
g18
sg9
g19
sbag1
(g2
g3
Ntp563
Rp564
(dp565
g7
g18
sg9
g19
sbag1
(g2
g3
Ntp566
Rp567
(dp568
g7
g125
sg9
g29
sbag1
(g2
g3
Ntp569
Rp570
(dp571
g7
g41
sg9
g19
sbag1
(g2
g3
Ntp572
Rp573
(dp574
g7
g18
sg9
g19
sbag1
(g2
g3
Ntp575
Rp576
(dp577
g7
g18
sg9
g19
sbag1
(g2
g3
Ntp578
Rp579
(dp580
g7
g18
sg9
g19
sbag1
(g2
g3
Ntp581
Rp582
(dp583
g7
g18
sg9
g19
sbag1
(g2
g3
Ntp584
Rp585
(dp586
g7
S'public'
p587
sg9
g14
sbag1
(g2
g3
Ntp588
Rp589
(dp590
g7
g18
sg9
g19
sbag1
(g2
g3
Ntp591
Rp592
(dp593
g7
S'final'
p594
sg9
g14
sbag1
(g2
g3
Ntp595
Rp596
(dp597
g7
g18
sg9
g19
sbag1
(g2
g3
Ntp598
Rp599
(dp600
g7
S'Class'
p601
sg9
g24
sbag1
(g2
g3
Ntp602
Rp603
(dp604
g7
g18
sg9
g19
sbag1
(g2
g3
Ntp605
Rp606
(dp607
g7
S'getClass'
p608
sg9
g24
sbag1
(g2
g3
Ntp609
Rp610
(dp611
g7
g96
sg9
g29
sbag1
(g2
g3
Ntp612
Rp613
(dp614
g7
g100
sg9
g29
sbag1
(g2
g3
Ntp615
Rp616
(dp617
g7
g18
sg9
g19
sbag1
(g2
g3
Ntp618
Rp619
(dp620
g7
g66
sg9
g29
sbag1
(g2
g3
Ntp621
Rp622
(dp623
g7
g41
sg9
g19
sbag1
(g2
g3
Ntp624
Rp625
(dp626
g7
g18
sg9
g19
sbag1
(g2
g3
Ntp627
Rp628
(dp629
g7
g18
sg9
g19
sbag1
(g2
g3
Ntp630
Rp631
(dp632
g7
g18
sg9
g19
sbag1
(g2
g3
Ntp633
Rp634
(dp635
g7
g18
sg9
g19
sbag1
(g2
g3
Ntp636
Rp637
(dp638
g7
g18
sg9
g19
sbag1
(g2
g3
Ntp639
Rp640
(dp641
g7
g18
sg9
g19
sbag1
(g2
g3
Ntp642
Rp643
(dp644
g7
g18
sg9
g19
sbag1
(g2
g3
Ntp645
Rp646
(dp647
g7
g18
sg9
g19
sbag1
(g2
g3
Ntp648
Rp649
(dp650
g7
S'return'
p651
sg9
g14
sbag1
(g2
g3
Ntp652
Rp653
(dp654
g7
g18
sg9
g19
sbag1
(g2
g3
Ntp655
Rp656
(dp657
g7
S'null'
p658
sg9
g339
sbag1
(g2
g3
Ntp659
Rp660
(dp661
g7
g37
sg9
g29
sbag1
(g2
g3
Ntp662
Rp663
(dp664
g7
g41
sg9
g19
sbag1
(g2
g3
Ntp665
Rp666
(dp667
g7
g18
sg9
g19
sbag1
(g2
g3
Ntp668
Rp669
(dp670
g7
g18
sg9
g19
sbag1
(g2
g3
Ntp671
Rp672
(dp673
g7
g18
sg9
g19
sbag1
(g2
g3
Ntp674
Rp675
(dp676
g7
g18
sg9
g19
sbag1
(g2
g3
Ntp677
Rp678
(dp679
g7
g125
sg9
g29
sbag1
(g2
g3
Ntp680
Rp681
(dp682
g7
g41
sg9
g19
sbag1
(g2
g3
Ntp683
Rp684
(dp685
g7
g125
sg9
g29
sbag1
(g2
g3
Ntp686
Rp687
(dp688
g7
g41
sg9
g19
sbag1
(g2
g3
Ntp689
Rp690
(dp691
g7
S'EOF'
p692
sg9
g692
sba.