(lp0
ccopy_reg
_reconstructor
p1
(cscanner.scanner
Token
p2
c__builtin__
object
p3
Ntp4
Rp5
(dp6
S'lexeme'
p7
S'BOF'
p8
sS'type'
p9
g8
sbag1
(g2
g3
Ntp10
Rp11
(dp12
g7
S'package'
p13
sg9
S'Keyword'
p14
sbag1
(g2
g3
Ntp15
Rp16
(dp17
g7
S' '
p18
sg9
S'Whitespace'
p19
sbag1
(g2
g3
Ntp20
Rp21
(dp22
g7
S'java'
p23
sg9
S'Identifier'
p24
sbag1
(g2
g3
Ntp25
Rp26
(dp27
g7
S'.'
p28
sg9
S'Separator'
p29
sbag1
(g2
g3
Ntp30
Rp31
(dp32
g7
S'io'
p33
sg9
g24
sbag1
(g2
g3
Ntp34
Rp35
(dp36
g7
S';'
p37
sg9
g29
sbag1
(g2
g3
Ntp38
Rp39
(dp40
g7
S'\n'
p41
sg9
g19
sbag1
(g2
g3
Ntp42
Rp43
(dp44
g7
S'public'
p45
sg9
g14
sbag1
(g2
g3
Ntp46
Rp47
(dp48
g7
g18
sg9
g19
sbag1
(g2
g3
Ntp49
Rp50
(dp51
g7
S'class'
p52
sg9
g14
sbag1
(g2
g3
Ntp53
Rp54
(dp55
g7
g18
sg9
g19
sbag1
(g2
g3
Ntp56
Rp57
(dp58
g7
S'OutputStream'
p59
sg9
g24
sbag1
(g2
g3
Ntp60
Rp61
(dp62
g7
g18
sg9
g19
sbag1
(g2
g3
Ntp63
Rp64
(dp65
g7
S'{'
p66
sg9
g29
sbag1
(g2
g3
Ntp67
Rp68
(dp69
g7
g41
sg9
g19
sbag1
(g2
g3
Ntp70
Rp71
(dp72
g7
g18
sg9
g19
sbag1
(g2
g3
Ntp73
Rp74
(dp75
g7
g18
sg9
g19
sbag1
(g2
g3
Ntp76
Rp77
(dp78
g7
g18
sg9
g19
sbag1
(g2
g3
Ntp79
Rp80
(dp81
g7
g18
sg9
g19
sbag1
(g2
g3
Ntp82
Rp83
(dp84
g7
S'public'
p85
sg9
g14
sbag1
(g2
g3
Ntp86
Rp87
(dp88
g7
g18
sg9
g19
sbag1
(g2
g3
Ntp89
Rp90
(dp91
g7
S'OutputStream'
p92
sg9
g24
sbag1
(g2
g3
Ntp93
Rp94
(dp95
g7
S'('
p96
sg9
g29
sbag1
(g2
g3
Ntp97
Rp98
(dp99
g7
S')'
p100
sg9
g29
sbag1
(g2
g3
Ntp101
Rp102
(dp103
g7
g18
sg9
g19
sbag1
(g2
g3
Ntp104
Rp105
(dp106
g7
g66
sg9
g29
sbag1
(g2
g3
Ntp107
Rp108
(dp109
g7
g41
sg9
g19
sbag1
(g2
g3
Ntp110
Rp111
(dp112
g7
g18
sg9
g19
sbag1
(g2
g3
Ntp113
Rp114
(dp115
g7
g18
sg9
g19
sbag1
(g2
g3
Ntp116
Rp117
(dp118
g7
g18
sg9
g19
sbag1
(g2
g3
Ntp119
Rp120
(dp121
g7
g18
sg9
g19
sbag1
(g2
g3
Ntp122
Rp123
(dp124
g7
S'}'
p125
sg9
g29
sbag1
(g2
g3
Ntp126
Rp127
(dp128
g7
g41
sg9
g19
sbag1
(g2
g3
Ntp129
Rp130
(dp131
g7
g18
sg9
g19
sbag1
(g2
g3
Ntp132
Rp133
(dp134
g7
g18
sg9
g19
sbag1
(g2
g3
Ntp135
Rp136
(dp137
g7
g18
sg9
g19
sbag1
(g2
g3
Ntp138
Rp139
(dp140
g7
g18
sg9
g19
sbag1
(g2
g3
Ntp141
Rp142
(dp143
g7
S'public'
p144
sg9
g14
sbag1
(g2
g3
Ntp145
Rp146
(dp147
g7
g18
sg9
g19
sbag1
(g2
g3
Ntp148
Rp149
(dp150
g7
S'void'
p151
sg9
g14
sbag1
(g2
g3
Ntp152
Rp153
(dp154
g7
g18
sg9
g19
sbag1
(g2
g3
Ntp155
Rp156
(dp157
g7
S'write'
p158
sg9
g24
sbag1
(g2
g3
Ntp159
Rp160
(dp161
g7
g96
sg9
g29
sbag1
(g2
g3
Ntp162
Rp163
(dp164
g7
S'char'
p165
sg9
g14
sbag1
(g2
g3
Ntp166
Rp167
(dp168
g7
g18
sg9
g19
sbag1
(g2
g3
Ntp169
Rp170
(dp171
g7
S'c'
p172
sg9
g24
sbag1
(g2
g3
Ntp173
Rp174
(dp175
g7
g100
sg9
g29
sbag1
(g2
g3
Ntp176
Rp177
(dp178
g7
g18
sg9
g19
sbag1
(g2
g3
Ntp179
Rp180
(dp181
g7
g66
sg9
g29
sbag1
(g2
g3
Ntp182
Rp183
(dp184
g7
g41
sg9
g19
sbag1
(g2
g3
Ntp185
Rp186
(dp187
g7
g18
sg9
g19
sbag1
(g2
g3
Ntp188
Rp189
(dp190
g7
g18
sg9
g19
sbag1
(g2
g3
Ntp191
Rp192
(dp193
g7
g18
sg9
g19
sbag1
(g2
g3
Ntp194
Rp195
(dp196
g7
g18
sg9
g19
sbag1
(g2
g3
Ntp197
Rp198
(dp199
g7
g18
sg9
g19
sbag1
(g2
g3
Ntp200
Rp201
(dp202
g7
g18
sg9
g19
sbag1
(g2
g3
Ntp203
Rp204
(dp205
g7
g18
sg9
g19
sbag1
(g2
g3
Ntp206
Rp207
(dp208
g7
g18
sg9
g19
sbag1
(g2
g3
Ntp209
Rp210
(dp211
g7
S'write'
p212
sg9
g24
sbag1
(g2
g3
Ntp213
Rp214
(dp215
g7
g96
sg9
g29
sbag1
(g2
g3
Ntp216
Rp217
(dp218
g7
g96
sg9
g29
sbag1
(g2
g3
Ntp219
Rp220
(dp221
g7
S'int'
p222
sg9
g14
sbag1
(g2
g3
Ntp223
Rp224
(dp225
g7
g100
sg9
g29
sbag1
(g2
g3
Ntp226
Rp227
(dp228
g7
g172
sg9
g24
sbag1
(g2
g3
Ntp229
Rp230
(dp231
g7
g100
sg9
g29
sbag1
(g2
g3
Ntp232
Rp233
(dp234
g7
g37
sg9
g29
sbag1
(g2
g3
Ntp235
Rp236
(dp237
g7
g41
sg9
g19
sbag1
(g2
g3
Ntp238
Rp239
(dp240
g7
g18
sg9
g19
sbag1
(g2
g3
Ntp241
Rp242
(dp243
g7
g18
sg9
g19
sbag1
(g2
g3
Ntp244
Rp245
(dp246
g7
g18
sg9
g19
sbag1
(g2
g3
Ntp247
Rp248
(dp249
g7
g18
sg9
g19
sbag1
(g2
g3
Ntp250
Rp251
(dp252
g7
g125
sg9
g29
sbag1
(g2
g3
Ntp253
Rp254
(dp255
g7
g41
sg9
g19
sbag1
(g2
g3
Ntp256
Rp257
(dp258
g7
g18
sg9
g19
sbag1
(g2
g3
Ntp259
Rp260
(dp261
g7
g18
sg9
g19
sbag1
(g2
g3
Ntp262
Rp263
(dp264
g7
g18
sg9
g19
sbag1
(g2
g3
Ntp265
Rp266
(dp267
g7
g18
sg9
g19
sbag1
(g2
g3
Ntp268
Rp269
(dp270
g7
S'public'
p271
sg9
g14
sbag1
(g2
g3
Ntp272
Rp273
(dp274
g7
g18
sg9
g19
sbag1
(g2
g3
Ntp275
Rp276
(dp277
g7
S'void'
p278
sg9
g14
sbag1
(g2
g3
Ntp279
Rp280
(dp281
g7
g18
sg9
g19
sbag1
(g2
g3
Ntp282
Rp283
(dp284
g7
S'write'
p285
sg9
g24
sbag1
(g2
g3
Ntp286
Rp287
(dp288
g7
g96
sg9
g29
sbag1
(g2
g3
Ntp289
Rp290
(dp291
g7
S'int'
p292
sg9
g14
sbag1
(g2
g3
Ntp293
Rp294
(dp295
g7
g18
sg9
g19
sbag1
(g2
g3
Ntp296
Rp297
(dp298
g7
S'b'
p299
sg9
g24
sbag1
(g2
g3
Ntp300
Rp301
(dp302
g7
g100
sg9
g29
sbag1
(g2
g3
Ntp303
Rp304
(dp305
g7
g18
sg9
g19
sbag1
(g2
g3
Ntp306
Rp307
(dp308
g7
g66
sg9
g29
sbag1
(g2
g3
Ntp309
Rp310
(dp311
g7
g41
sg9
g19
sbag1
(g2
g3
Ntp312
Rp313
(dp314
g7
g18
sg9
g19
sbag1
(g2
g3
Ntp315
Rp316
(dp317
g7
g18
sg9
g19
sbag1
(g2
g3
Ntp318
Rp319
(dp320
g7
g18
sg9
g19
sbag1
(g2
g3
Ntp321
Rp322
(dp323
g7
g18
sg9
g19
sbag1
(g2
g3
Ntp324
Rp325
(dp326
g7
g18
sg9
g19
sbag1
(g2
g3
Ntp327
Rp328
(dp329
g7
g18
sg9
g19
sbag1
(g2
g3
Ntp330
Rp331
(dp332
g7
g18
sg9
g19
sbag1
(g2
g3
Ntp333
Rp334
(dp335
g7
g18
sg9
g19
sbag1
(g2
g3
Ntp336
Rp337
(dp338
g7
S'PrintStream'
p339
sg9
g24
sbag1
(g2
g3
Ntp340
Rp341
(dp342
g7
g28
sg9
g29
sbag1
(g2
g3
Ntp343
Rp344
(dp345
g7
S'nativeWrite'
p346
sg9
g24
sbag1
(g2
g3
Ntp347
Rp348
(dp349
g7
g96
sg9
g29
sbag1
(g2
g3
Ntp350
Rp351
(dp352
g7
g299
sg9
g24
sbag1
(g2
g3
Ntp353
Rp354
(dp355
g7
g100
sg9
g29
sbag1
(g2
g3
Ntp356
Rp357
(dp358
g7
g37
sg9
g29
sbag1
(g2
g3
Ntp359
Rp360
(dp361
g7
g41
sg9
g19
sbag1
(g2
g3
Ntp362
Rp363
(dp364
g7
g18
sg9
g19
sbag1
(g2
g3
Ntp365
Rp366
(dp367
g7
g18
sg9
g19
sbag1
(g2
g3
Ntp368
Rp369
(dp370
g7
g18
sg9
g19
sbag1
(g2
g3
Ntp371
Rp372
(dp373
g7
g18
sg9
g19
sbag1
(g2
g3
Ntp374
Rp375
(dp376
g7
g125
sg9
g29
sbag1
(g2
g3
Ntp377
Rp378
(dp379
g7
g41
sg9
g19
sbag1
(g2
g3
Ntp380
Rp381
(dp382
g7
g18
sg9
g19
sbag1
(g2
g3
Ntp383
Rp384
(dp385
g7
g18
sg9
g19
sbag1
(g2
g3
Ntp386
Rp387
(dp388
g7
g18
sg9
g19
sbag1
(g2
g3
Ntp389
Rp390
(dp391
g7
g18
sg9
g19
sbag1
(g2
g3
Ntp392
Rp393
(dp394
g7
S'protected'
p395
sg9
g14
sbag1
(g2
g3
Ntp396
Rp397
(dp398
g7
g18
sg9
g19
sbag1
(g2
g3
Ntp399
Rp400
(dp401
g7
S'static'
p402
sg9
g14
sbag1
(g2
g3
Ntp403
Rp404
(dp405
g7
g18
sg9
g19
sbag1
(g2
g3
Ntp406
Rp407
(dp408
g7
S'native'
p409
sg9
g14
sbag1
(g2
g3
Ntp410
Rp411
(dp412
g7
g18
sg9
g19
sbag1
(g2
g3
Ntp413
Rp414
(dp415
g7
S'int'
p416
sg9
g14
sbag1
(g2
g3
Ntp417
Rp418
(dp419
g7
g18
sg9
g19
sbag1
(g2
g3
Ntp420
Rp421
(dp422
g7
S'nativeWrite'
p423
sg9
g24
sbag1
(g2
g3
Ntp424
Rp425
(dp426
g7
g96
sg9
g29
sbag1
(g2
g3
Ntp427
Rp428
(dp429
g7
S'int'
p430
sg9
g14
sbag1
(g2
g3
Ntp431
Rp432
(dp433
g7
g18
sg9
g19
sbag1
(g2
g3
Ntp434
Rp435
(dp436
g7
g299
sg9
g24
sbag1
(g2
g3
Ntp437
Rp438
(dp439
g7
g100
sg9
g29
sbag1
(g2
g3
Ntp440
Rp441
(dp442
g7
g37
sg9
g29
sbag1
(g2
g3
Ntp443
Rp444
(dp445
g7
g41
sg9
g19
sbag1
(g2
g3
Ntp446
Rp447
(dp448
g7
g18
sg9
g19
sbag1
(g2
g3
Ntp449
Rp450
(dp451
g7
g18
sg9
g19
sbag1
(g2
g3
Ntp452
Rp453
(dp454
g7
g18
sg9
g19
sbag1
(g2
g3
Ntp455
Rp456
(dp457
g7
g18
sg9
g19
sbag1
(g2
g3
Ntp458
Rp459
(dp460
g7
S'public'
p461
sg9
g14
sbag1
(g2
g3
Ntp462
Rp463
(dp464
g7
g18
sg9
g19
sbag1
(g2
g3
Ntp465
Rp466
(dp467
g7
S'void'
p468
sg9
g14
sbag1
(g2
g3
Ntp469
Rp470
(dp471
g7
g18
sg9
g19
sbag1
(g2
g3
Ntp472
Rp473
(dp474
g7
S'flush'
p475
sg9
g24
sbag1
(g2
g3
Ntp476
Rp477
(dp478
g7
g96
sg9
g29
sbag1
(g2
g3
Ntp479
Rp480
(dp481
g7
g100
sg9
g29
sbag1
(g2
g3
Ntp482
Rp483
(dp484
g7
g18
sg9
g19
sbag1
(g2
g3
Ntp485
Rp486
(dp487
g7
g66
sg9
g29
sbag1
(g2
g3
Ntp488
Rp489
(dp490
g7
g41
sg9
g19
sbag1
(g2
g3
Ntp491
Rp492
(dp493
g7
g18
sg9
g19
sbag1
(g2
g3
Ntp494
Rp495
(dp496
g7
g18
sg9
g19
sbag1
(g2
g3
Ntp497
Rp498
(dp499
g7
g18
sg9
g19
sbag1
(g2
g3
Ntp500
Rp501
(dp502
g7
g18
sg9
g19
sbag1
(g2
g3
Ntp503
Rp504
(dp505
g7
g125
sg9
g29
sbag1
(g2
g3
Ntp506
Rp507
(dp508
g7
g41
sg9
g19
sbag1
(g2
g3
Ntp509
Rp510
(dp511
g7
g125
sg9
g29
sbag1
(g2
g3
Ntp512
Rp513
(dp514
g7
g41
sg9
g19
sbag1
(g2
g3
Ntp515
Rp516
(dp517
g7
S'EOF'
p518
sg9
g518
sba.