(lp0
ccopy_reg
_reconstructor
p1
(cscanner.scanner
Token
p2
c__builtin__
object
p3
Ntp4
Rp5
(dp6
S'lexeme'
p7
S'BOF'
p8
sS'type'
p9
g8
sbag1
(g2
g3
Ntp10
Rp11
(dp12
g7
S'package'
p13
sg9
S'Keyword'
p14
sbag1
(g2
g3
Ntp15
Rp16
(dp17
g7
S' '
p18
sg9
S'Whitespace'
p19
sbag1
(g2
g3
Ntp20
Rp21
(dp22
g7
S'java'
p23
sg9
S'Identifier'
p24
sbag1
(g2
g3
Ntp25
Rp26
(dp27
g7
S'.'
p28
sg9
S'Separator'
p29
sbag1
(g2
g3
Ntp30
Rp31
(dp32
g7
S'io'
p33
sg9
g24
sbag1
(g2
g3
Ntp34
Rp35
(dp36
g7
S';'
p37
sg9
g29
sbag1
(g2
g3
Ntp38
Rp39
(dp40
g7
S'\n'
p41
sg9
g19
sbag1
(g2
g3
Ntp42
Rp43
(dp44
g7
S'public'
p45
sg9
g14
sbag1
(g2
g3
Ntp46
Rp47
(dp48
g7
g18
sg9
g19
sbag1
(g2
g3
Ntp49
Rp50
(dp51
g7
S'class'
p52
sg9
g14
sbag1
(g2
g3
Ntp53
Rp54
(dp55
g7
g18
sg9
g19
sbag1
(g2
g3
Ntp56
Rp57
(dp58
g7
S'PrintStream'
p59
sg9
g24
sbag1
(g2
g3
Ntp60
Rp61
(dp62
g7
g18
sg9
g19
sbag1
(g2
g3
Ntp63
Rp64
(dp65
g7
S'extends'
p66
sg9
g14
sbag1
(g2
g3
Ntp67
Rp68
(dp69
g7
g18
sg9
g19
sbag1
(g2
g3
Ntp70
Rp71
(dp72
g7
S'OutputStream'
p73
sg9
g24
sbag1
(g2
g3
Ntp74
Rp75
(dp76
g7
g18
sg9
g19
sbag1
(g2
g3
Ntp77
Rp78
(dp79
g7
S'{'
p80
sg9
g29
sbag1
(g2
g3
Ntp81
Rp82
(dp83
g7
g41
sg9
g19
sbag1
(g2
g3
Ntp84
Rp85
(dp86
g7
g18
sg9
g19
sbag1
(g2
g3
Ntp87
Rp88
(dp89
g7
g18
sg9
g19
sbag1
(g2
g3
Ntp90
Rp91
(dp92
g7
g18
sg9
g19
sbag1
(g2
g3
Ntp93
Rp94
(dp95
g7
g18
sg9
g19
sbag1
(g2
g3
Ntp96
Rp97
(dp98
g7
S'public'
p99
sg9
g14
sbag1
(g2
g3
Ntp100
Rp101
(dp102
g7
g18
sg9
g19
sbag1
(g2
g3
Ntp103
Rp104
(dp105
g7
S'PrintStream'
p106
sg9
g24
sbag1
(g2
g3
Ntp107
Rp108
(dp109
g7
S'('
p110
sg9
g29
sbag1
(g2
g3
Ntp111
Rp112
(dp113
g7
S')'
p114
sg9
g29
sbag1
(g2
g3
Ntp115
Rp116
(dp117
g7
g18
sg9
g19
sbag1
(g2
g3
Ntp118
Rp119
(dp120
g7
g80
sg9
g29
sbag1
(g2
g3
Ntp121
Rp122
(dp123
g7
g41
sg9
g19
sbag1
(g2
g3
Ntp124
Rp125
(dp126
g7
g18
sg9
g19
sbag1
(g2
g3
Ntp127
Rp128
(dp129
g7
g18
sg9
g19
sbag1
(g2
g3
Ntp130
Rp131
(dp132
g7
g18
sg9
g19
sbag1
(g2
g3
Ntp133
Rp134
(dp135
g7
g18
sg9
g19
sbag1
(g2
g3
Ntp136
Rp137
(dp138
g7
S'}'
p139
sg9
g29
sbag1
(g2
g3
Ntp140
Rp141
(dp142
g7
g41
sg9
g19
sbag1
(g2
g3
Ntp143
Rp144
(dp145
g7
g18
sg9
g19
sbag1
(g2
g3
Ntp146
Rp147
(dp148
g7
g18
sg9
g19
sbag1
(g2
g3
Ntp149
Rp150
(dp151
g7
g18
sg9
g19
sbag1
(g2
g3
Ntp152
Rp153
(dp154
g7
g18
sg9
g19
sbag1
(g2
g3
Ntp155
Rp156
(dp157
g7
S'public'
p158
sg9
g14
sbag1
(g2
g3
Ntp159
Rp160
(dp161
g7
g18
sg9
g19
sbag1
(g2
g3
Ntp162
Rp163
(dp164
g7
S'void'
p165
sg9
g14
sbag1
(g2
g3
Ntp166
Rp167
(dp168
g7
g18
sg9
g19
sbag1
(g2
g3
Ntp169
Rp170
(dp171
g7
S'print'
p172
sg9
g24
sbag1
(g2
g3
Ntp173
Rp174
(dp175
g7
g110
sg9
g29
sbag1
(g2
g3
Ntp176
Rp177
(dp178
g7
S'String'
p179
sg9
g24
sbag1
(g2
g3
Ntp180
Rp181
(dp182
g7
g18
sg9
g19
sbag1
(g2
g3
Ntp183
Rp184
(dp185
g7
S's'
p186
sg9
g24
sbag1
(g2
g3
Ntp187
Rp188
(dp189
g7
g114
sg9
g29
sbag1
(g2
g3
Ntp190
Rp191
(dp192
g7
g18
sg9
g19
sbag1
(g2
g3
Ntp193
Rp194
(dp195
g7
g80
sg9
g29
sbag1
(g2
g3
Ntp196
Rp197
(dp198
g7
g41
sg9
g19
sbag1
(g2
g3
Ntp199
Rp200
(dp201
g7
g18
sg9
g19
sbag1
(g2
g3
Ntp202
Rp203
(dp204
g7
g18
sg9
g19
sbag1
(g2
g3
Ntp205
Rp206
(dp207
g7
g18
sg9
g19
sbag1
(g2
g3
Ntp208
Rp209
(dp210
g7
g18
sg9
g19
sbag1
(g2
g3
Ntp211
Rp212
(dp213
g7
g18
sg9
g19
sbag1
(g2
g3
Ntp214
Rp215
(dp216
g7
g18
sg9
g19
sbag1
(g2
g3
Ntp217
Rp218
(dp219
g7
g18
sg9
g19
sbag1
(g2
g3
Ntp220
Rp221
(dp222
g7
g18
sg9
g19
sbag1
(g2
g3
Ntp223
Rp224
(dp225
g7
S'for'
p226
sg9
g14
sbag1
(g2
g3
Ntp227
Rp228
(dp229
g7
g110
sg9
g29
sbag1
(g2
g3
Ntp230
Rp231
(dp232
g7
S'int'
p233
sg9
g14
sbag1
(g2
g3
Ntp234
Rp235
(dp236
g7
g18
sg9
g19
sbag1
(g2
g3
Ntp237
Rp238
(dp239
g7
S'i'
p240
sg9
g24
sbag1
(g2
g3
Ntp241
Rp242
(dp243
g7
g18
sg9
g19
sbag1
(g2
g3
Ntp244
Rp245
(dp246
g7
S'='
p247
sg9
S'Operator'
p248
sbag1
(g2
g3
Ntp249
Rp250
(dp251
g7
g18
sg9
g19
sbag1
(g2
g3
Ntp252
Rp253
(dp254
g7
S'0'
p255
sg9
S'Literal'
p256
sbag1
(g2
g3
Ntp257
Rp258
(dp259
g7
g37
sg9
g29
sbag1
(g2
g3
Ntp260
Rp261
(dp262
g7
g18
sg9
g19
sbag1
(g2
g3
Ntp263
Rp264
(dp265
g7
g240
sg9
g24
sbag1
(g2
g3
Ntp266
Rp267
(dp268
g7
g18
sg9
g19
sbag1
(g2
g3
Ntp269
Rp270
(dp271
g7
S'<'
p272
sg9
g248
sbag1
(g2
g3
Ntp273
Rp274
(dp275
g7
g18
sg9
g19
sbag1
(g2
g3
Ntp276
Rp277
(dp278
g7
g186
sg9
g24
sbag1
(g2
g3
Ntp279
Rp280
(dp281
g7
g28
sg9
g29
sbag1
(g2
g3
Ntp282
Rp283
(dp284
g7
S'length'
p285
sg9
g24
sbag1
(g2
g3
Ntp286
Rp287
(dp288
g7
g110
sg9
g29
sbag1
(g2
g3
Ntp289
Rp290
(dp291
g7
g114
sg9
g29
sbag1
(g2
g3
Ntp292
Rp293
(dp294
g7
g37
sg9
g29
sbag1
(g2
g3
Ntp295
Rp296
(dp297
g7
g18
sg9
g19
sbag1
(g2
g3
Ntp298
Rp299
(dp300
g7
g240
sg9
g24
sbag1
(g2
g3
Ntp301
Rp302
(dp303
g7
g18
sg9
g19
sbag1
(g2
g3
Ntp304
Rp305
(dp306
g7
g247
sg9
g248
sbag1
(g2
g3
Ntp307
Rp308
(dp309
g7
g18
sg9
g19
sbag1
(g2
g3
Ntp310
Rp311
(dp312
g7
g240
sg9
g24
sbag1
(g2
g3
Ntp313
Rp314
(dp315
g7
g18
sg9
g19
sbag1
(g2
g3
Ntp316
Rp317
(dp318
g7
S'+'
p319
sg9
g248
sbag1
(g2
g3
Ntp320
Rp321
(dp322
g7
g18
sg9
g19
sbag1
(g2
g3
Ntp323
Rp324
(dp325
g7
S'1'
p326
sg9
g256
sbag1
(g2
g3
Ntp327
Rp328
(dp329
g7
g114
sg9
g29
sbag1
(g2
g3
Ntp330
Rp331
(dp332
g7
g18
sg9
g19
sbag1
(g2
g3
Ntp333
Rp334
(dp335
g7
g80
sg9
g29
sbag1
(g2
g3
Ntp336
Rp337
(dp338
g7
g41
sg9
g19
sbag1
(g2
g3
Ntp339
Rp340
(dp341
g7
g18
sg9
g19
sbag1
(g2
g3
Ntp342
Rp343
(dp344
g7
g18
sg9
g19
sbag1
(g2
g3
Ntp345
Rp346
(dp347
g7
g18
sg9
g19
sbag1
(g2
g3
Ntp348
Rp349
(dp350
g7
g18
sg9
g19
sbag1
(g2
g3
Ntp351
Rp352
(dp353
g7
g18
sg9
g19
sbag1
(g2
g3
Ntp354
Rp355
(dp356
g7
g18
sg9
g19
sbag1
(g2
g3
Ntp357
Rp358
(dp359
g7
g18
sg9
g19
sbag1
(g2
g3
Ntp360
Rp361
(dp362
g7
g18
sg9
g19
sbag1
(g2
g3
Ntp363
Rp364
(dp365
g7
g18
sg9
g19
sbag1
(g2
g3
Ntp366
Rp367
(dp368
g7
g18
sg9
g19
sbag1
(g2
g3
Ntp369
Rp370
(dp371
g7
g18
sg9
g19
sbag1
(g2
g3
Ntp372
Rp373
(dp374
g7
g18
sg9
g19
sbag1
(g2
g3
Ntp375
Rp376
(dp377
g7
S'write'
p378
sg9
g24
sbag1
(g2
g3
Ntp379
Rp380
(dp381
g7
g110
sg9
g29
sbag1
(g2
g3
Ntp382
Rp383
(dp384
g7
g186
sg9
g24
sbag1
(g2
g3
Ntp385
Rp386
(dp387
g7
g28
sg9
g29
sbag1
(g2
g3
Ntp388
Rp389
(dp390
g7
S'charAt'
p391
sg9
g24
sbag1
(g2
g3
Ntp392
Rp393
(dp394
g7
g110
sg9
g29
sbag1
(g2
g3
Ntp395
Rp396
(dp397
g7
g240
sg9
g24
sbag1
(g2
g3
Ntp398
Rp399
(dp400
g7
g114
sg9
g29
sbag1
(g2
g3
Ntp401
Rp402
(dp403
g7
g114
sg9
g29
sbag1
(g2
g3
Ntp404
Rp405
(dp406
g7
g37
sg9
g29
sbag1
(g2
g3
Ntp407
Rp408
(dp409
g7
g41
sg9
g19
sbag1
(g2
g3
Ntp410
Rp411
(dp412
g7
g18
sg9
g19
sbag1
(g2
g3
Ntp413
Rp414
(dp415
g7
g18
sg9
g19
sbag1
(g2
g3
Ntp416
Rp417
(dp418
g7
g18
sg9
g19
sbag1
(g2
g3
Ntp419
Rp420
(dp421
g7
g18
sg9
g19
sbag1
(g2
g3
Ntp422
Rp423
(dp424
g7
g18
sg9
g19
sbag1
(g2
g3
Ntp425
Rp426
(dp427
g7
g18
sg9
g19
sbag1
(g2
g3
Ntp428
Rp429
(dp430
g7
g18
sg9
g19
sbag1
(g2
g3
Ntp431
Rp432
(dp433
g7
g18
sg9
g19
sbag1
(g2
g3
Ntp434
Rp435
(dp436
g7
g139
sg9
g29
sbag1
(g2
g3
Ntp437
Rp438
(dp439
g7
g41
sg9
g19
sbag1
(g2
g3
Ntp440
Rp441
(dp442
g7
g18
sg9
g19
sbag1
(g2
g3
Ntp443
Rp444
(dp445
g7
g18
sg9
g19
sbag1
(g2
g3
Ntp446
Rp447
(dp448
g7
g18
sg9
g19
sbag1
(g2
g3
Ntp449
Rp450
(dp451
g7
g18
sg9
g19
sbag1
(g2
g3
Ntp452
Rp453
(dp454
g7
g139
sg9
g29
sbag1
(g2
g3
Ntp455
Rp456
(dp457
g7
g41
sg9
g19
sbag1
(g2
g3
Ntp458
Rp459
(dp460
g7
g18
sg9
g19
sbag1
(g2
g3
Ntp461
Rp462
(dp463
g7
g18
sg9
g19
sbag1
(g2
g3
Ntp464
Rp465
(dp466
g7
g18
sg9
g19
sbag1
(g2
g3
Ntp467
Rp468
(dp469
g7
g18
sg9
g19
sbag1
(g2
g3
Ntp470
Rp471
(dp472
g7
S'public'
p473
sg9
g14
sbag1
(g2
g3
Ntp474
Rp475
(dp476
g7
g18
sg9
g19
sbag1
(g2
g3
Ntp477
Rp478
(dp479
g7
S'void'
p480
sg9
g14
sbag1
(g2
g3
Ntp481
Rp482
(dp483
g7
g18
sg9
g19
sbag1
(g2
g3
Ntp484
Rp485
(dp486
g7
S'println'
p487
sg9
g24
sbag1
(g2
g3
Ntp488
Rp489
(dp490
g7
g110
sg9
g29
sbag1
(g2
g3
Ntp491
Rp492
(dp493
g7
g114
sg9
g29
sbag1
(g2
g3
Ntp494
Rp495
(dp496
g7
g18
sg9
g19
sbag1
(g2
g3
Ntp497
Rp498
(dp499
g7
g80
sg9
g29
sbag1
(g2
g3
Ntp500
Rp501
(dp502
g7
g41
sg9
g19
sbag1
(g2
g3
Ntp503
Rp504
(dp505
g7
g18
sg9
g19
sbag1
(g2
g3
Ntp506
Rp507
(dp508
g7
g18
sg9
g19
sbag1
(g2
g3
Ntp509
Rp510
(dp511
g7
g18
sg9
g19
sbag1
(g2
g3
Ntp512
Rp513
(dp514
g7
g18
sg9
g19
sbag1
(g2
g3
Ntp515
Rp516
(dp517
g7
g18
sg9
g19
sbag1
(g2
g3
Ntp518
Rp519
(dp520
g7
g18
sg9
g19
sbag1
(g2
g3
Ntp521
Rp522
(dp523
g7
g18
sg9
g19
sbag1
(g2
g3
Ntp524
Rp525
(dp526
g7
g18
sg9
g19
sbag1
(g2
g3
Ntp527
Rp528
(dp529
g7
S'println'
p530
sg9
g24
sbag1
(g2
g3
Ntp531
Rp532
(dp533
g7
g110
sg9
g29
sbag1
(g2
g3
Ntp534
Rp535
(dp536
g7
S'""'
p537
sg9
g256
sbag1
(g2
g3
Ntp538
Rp539
(dp540
g7
g114
sg9
g29
sbag1
(g2
g3
Ntp541
Rp542
(dp543
g7
g37
sg9
g29
sbag1
(g2
g3
Ntp544
Rp545
(dp546
g7
g41
sg9
g19
sbag1
(g2
g3
Ntp547
Rp548
(dp549
g7
g18
sg9
g19
sbag1
(g2
g3
Ntp550
Rp551
(dp552
g7
g18
sg9
g19
sbag1
(g2
g3
Ntp553
Rp554
(dp555
g7
g18
sg9
g19
sbag1
(g2
g3
Ntp556
Rp557
(dp558
g7
g18
sg9
g19
sbag1
(g2
g3
Ntp559
Rp560
(dp561
g7
g139
sg9
g29
sbag1
(g2
g3
Ntp562
Rp563
(dp564
g7
g41
sg9
g19
sbag1
(g2
g3
Ntp565
Rp566
(dp567
g7
g18
sg9
g19
sbag1
(g2
g3
Ntp568
Rp569
(dp570
g7
g18
sg9
g19
sbag1
(g2
g3
Ntp571
Rp572
(dp573
g7
g18
sg9
g19
sbag1
(g2
g3
Ntp574
Rp575
(dp576
g7
g18
sg9
g19
sbag1
(g2
g3
Ntp577
Rp578
(dp579
g7
S'public'
p580
sg9
g14
sbag1
(g2
g3
Ntp581
Rp582
(dp583
g7
g18
sg9
g19
sbag1
(g2
g3
Ntp584
Rp585
(dp586
g7
S'void'
p587
sg9
g14
sbag1
(g2
g3
Ntp588
Rp589
(dp590
g7
g18
sg9
g19
sbag1
(g2
g3
Ntp591
Rp592
(dp593
g7
S'println'
p594
sg9
g24
sbag1
(g2
g3
Ntp595
Rp596
(dp597
g7
g110
sg9
g29
sbag1
(g2
g3
Ntp598
Rp599
(dp600
g7
S'String'
p601
sg9
g24
sbag1
(g2
g3
Ntp602
Rp603
(dp604
g7
g18
sg9
g19
sbag1
(g2
g3
Ntp605
Rp606
(dp607
g7
g186
sg9
g24
sbag1
(g2
g3
Ntp608
Rp609
(dp610
g7
g114
sg9
g29
sbag1
(g2
g3
Ntp611
Rp612
(dp613
g7
g18
sg9
g19
sbag1
(g2
g3
Ntp614
Rp615
(dp616
g7
g80
sg9
g29
sbag1
(g2
g3
Ntp617
Rp618
(dp619
g7
g41
sg9
g19
sbag1
(g2
g3
Ntp620
Rp621
(dp622
g7
g18
sg9
g19
sbag1
(g2
g3
Ntp623
Rp624
(dp625
g7
g18
sg9
g19
sbag1
(g2
g3
Ntp626
Rp627
(dp628
g7
g18
sg9
g19
sbag1
(g2
g3
Ntp629
Rp630
(dp631
g7
g18
sg9
g19
sbag1
(g2
g3
Ntp632
Rp633
(dp634
g7
g18
sg9
g19
sbag1
(g2
g3
Ntp635
Rp636
(dp637
g7
g18
sg9
g19
sbag1
(g2
g3
Ntp638
Rp639
(dp640
g7
g18
sg9
g19
sbag1
(g2
g3
Ntp641
Rp642
(dp643
g7
g18
sg9
g19
sbag1
(g2
g3
Ntp644
Rp645
(dp646
g7
S'print'
p647
sg9
g24
sbag1
(g2
g3
Ntp648
Rp649
(dp650
g7
g110
sg9
g29
sbag1
(g2
g3
Ntp651
Rp652
(dp653
g7
g186
sg9
g24
sbag1
(g2
g3
Ntp654
Rp655
(dp656
g7
g114
sg9
g29
sbag1
(g2
g3
Ntp657
Rp658
(dp659
g7
g37
sg9
g29
sbag1
(g2
g3
Ntp660
Rp661
(dp662
g7
g41
sg9
g19
sbag1
(g2
g3
Ntp663
Rp664
(dp665
g7
g18
sg9
g19
sbag1
(g2
g3
Ntp666
Rp667
(dp668
g7
g18
sg9
g19
sbag1
(g2
g3
Ntp669
Rp670
(dp671
g7
g18
sg9
g19
sbag1
(g2
g3
Ntp672
Rp673
(dp674
g7
g18
sg9
g19
sbag1
(g2
g3
Ntp675
Rp676
(dp677
g7
g18
sg9
g19
sbag1
(g2
g3
Ntp678
Rp679
(dp680
g7
g18
sg9
g19
sbag1
(g2
g3
Ntp681
Rp682
(dp683
g7
g18
sg9
g19
sbag1
(g2
g3
Ntp684
Rp685
(dp686
g7
g18
sg9
g19
sbag1
(g2
g3
Ntp687
Rp688
(dp689
g7
S'write'
p690
sg9
g24
sbag1
(g2
g3
Ntp691
Rp692
(dp693
g7
g110
sg9
g29
sbag1
(g2
g3
Ntp694
Rp695
(dp696
g7
S"'\\n'"
p697
sg9
g256
sbag1
(g2
g3
Ntp698
Rp699
(dp700
g7
g114
sg9
g29
sbag1
(g2
g3
Ntp701
Rp702
(dp703
g7
g37
sg9
g29
sbag1
(g2
g3
Ntp704
Rp705
(dp706
g7
g41
sg9
g19
sbag1
(g2
g3
Ntp707
Rp708
(dp709
g7
g18
sg9
g19
sbag1
(g2
g3
Ntp710
Rp711
(dp712
g7
g18
sg9
g19
sbag1
(g2
g3
Ntp713
Rp714
(dp715
g7
g18
sg9
g19
sbag1
(g2
g3
Ntp716
Rp717
(dp718
g7
g18
sg9
g19
sbag1
(g2
g3
Ntp719
Rp720
(dp721
g7
g139
sg9
g29
sbag1
(g2
g3
Ntp722
Rp723
(dp724
g7
g41
sg9
g19
sbag1
(g2
g3
Ntp725
Rp726
(dp727
g7
g18
sg9
g19
sbag1
(g2
g3
Ntp728
Rp729
(dp730
g7
g18
sg9
g19
sbag1
(g2
g3
Ntp731
Rp732
(dp733
g7
g18
sg9
g19
sbag1
(g2
g3
Ntp734
Rp735
(dp736
g7
g18
sg9
g19
sbag1
(g2
g3
Ntp737
Rp738
(dp739
g7
S'public'
p740
sg9
g14
sbag1
(g2
g3
Ntp741
Rp742
(dp743
g7
g18
sg9
g19
sbag1
(g2
g3
Ntp744
Rp745
(dp746
g7
S'void'
p747
sg9
g14
sbag1
(g2
g3
Ntp748
Rp749
(dp750
g7
g18
sg9
g19
sbag1
(g2
g3
Ntp751
Rp752
(dp753
g7
S'println'
p754
sg9
g24
sbag1
(g2
g3
Ntp755
Rp756
(dp757
g7
g110
sg9
g29
sbag1
(g2
g3
Ntp758
Rp759
(dp760
g7
S'Object'
p761
sg9
g24
sbag1
(g2
g3
Ntp762
Rp763
(dp764
g7
g18
sg9
g19
sbag1
(g2
g3
Ntp765
Rp766
(dp767
g7
S'b'
p768
sg9
g24
sbag1
(g2
g3
Ntp769
Rp770
(dp771
g7
g114
sg9
g29
sbag1
(g2
g3
Ntp772
Rp773
(dp774
g7
g18
sg9
g19
sbag1
(g2
g3
Ntp775
Rp776
(dp777
g7
g80
sg9
g29
sbag1
(g2
g3
Ntp778
Rp779
(dp780
g7
g41
sg9
g19
sbag1
(g2
g3
Ntp781
Rp782
(dp783
g7
g18
sg9
g19
sbag1
(g2
g3
Ntp784
Rp785
(dp786
g7
g18
sg9
g19
sbag1
(g2
g3
Ntp787
Rp788
(dp789
g7
g18
sg9
g19
sbag1
(g2
g3
Ntp790
Rp791
(dp792
g7
g18
sg9
g19
sbag1
(g2
g3
Ntp793
Rp794
(dp795
g7
g18
sg9
g19
sbag1
(g2
g3
Ntp796
Rp797
(dp798
g7
g18
sg9
g19
sbag1
(g2
g3
Ntp799
Rp800
(dp801
g7
g18
sg9
g19
sbag1
(g2
g3
Ntp802
Rp803
(dp804
g7
g18
sg9
g19
sbag1
(g2
g3
Ntp805
Rp806
(dp807
g7
S'println'
p808
sg9
g24
sbag1
(g2
g3
Ntp809
Rp810
(dp811
g7
g110
sg9
g29
sbag1
(g2
g3
Ntp812
Rp813
(dp814
g7
S'String'
p815
sg9
g24
sbag1
(g2
g3
Ntp816
Rp817
(dp818
g7
g28
sg9
g29
sbag1
(g2
g3
Ntp819
Rp820
(dp821
g7
S'valueOf'
p822
sg9
g24
sbag1
(g2
g3
Ntp823
Rp824
(dp825
g7
g110
sg9
g29
sbag1
(g2
g3
Ntp826
Rp827
(dp828
g7
g768
sg9
g24
sbag1
(g2
g3
Ntp829
Rp830
(dp831
g7
g114
sg9
g29
sbag1
(g2
g3
Ntp832
Rp833
(dp834
g7
g114
sg9
g29
sbag1
(g2
g3
Ntp835
Rp836
(dp837
g7
g37
sg9
g29
sbag1
(g2
g3
Ntp838
Rp839
(dp840
g7
g41
sg9
g19
sbag1
(g2
g3
Ntp841
Rp842
(dp843
g7
g18
sg9
g19
sbag1
(g2
g3
Ntp844
Rp845
(dp846
g7
g18
sg9
g19
sbag1
(g2
g3
Ntp847
Rp848
(dp849
g7
g18
sg9
g19
sbag1
(g2
g3
Ntp850
Rp851
(dp852
g7
g18
sg9
g19
sbag1
(g2
g3
Ntp853
Rp854
(dp855
g7
g139
sg9
g29
sbag1
(g2
g3
Ntp856
Rp857
(dp858
g7
g41
sg9
g19
sbag1
(g2
g3
Ntp859
Rp860
(dp861
g7
g18
sg9
g19
sbag1
(g2
g3
Ntp862
Rp863
(dp864
g7
g18
sg9
g19
sbag1
(g2
g3
Ntp865
Rp866
(dp867
g7
g18
sg9
g19
sbag1
(g2
g3
Ntp868
Rp869
(dp870
g7
g18
sg9
g19
sbag1
(g2
g3
Ntp871
Rp872
(dp873
g7
S'public'
p874
sg9
g14
sbag1
(g2
g3
Ntp875
Rp876
(dp877
g7
g18
sg9
g19
sbag1
(g2
g3
Ntp878
Rp879
(dp880
g7
S'void'
p881
sg9
g14
sbag1
(g2
g3
Ntp882
Rp883
(dp884
g7
g18
sg9
g19
sbag1
(g2
g3
Ntp885
Rp886
(dp887
g7
S'println'
p888
sg9
g24
sbag1
(g2
g3
Ntp889
Rp890
(dp891
g7
g110
sg9
g29
sbag1
(g2
g3
Ntp892
Rp893
(dp894
g7
S'boolean'
p895
sg9
g14
sbag1
(g2
g3
Ntp896
Rp897
(dp898
g7
g18
sg9
g19
sbag1
(g2
g3
Ntp899
Rp900
(dp901
g7
g768
sg9
g24
sbag1
(g2
g3
Ntp902
Rp903
(dp904
g7
g114
sg9
g29
sbag1
(g2
g3
Ntp905
Rp906
(dp907
g7
g18
sg9
g19
sbag1
(g2
g3
Ntp908
Rp909
(dp910
g7
g80
sg9
g29
sbag1
(g2
g3
Ntp911
Rp912
(dp913
g7
g41
sg9
g19
sbag1
(g2
g3
Ntp914
Rp915
(dp916
g7
g18
sg9
g19
sbag1
(g2
g3
Ntp917
Rp918
(dp919
g7
g18
sg9
g19
sbag1
(g2
g3
Ntp920
Rp921
(dp922
g7
g18
sg9
g19
sbag1
(g2
g3
Ntp923
Rp924
(dp925
g7
g18
sg9
g19
sbag1
(g2
g3
Ntp926
Rp927
(dp928
g7
g18
sg9
g19
sbag1
(g2
g3
Ntp929
Rp930
(dp931
g7
g18
sg9
g19
sbag1
(g2
g3
Ntp932
Rp933
(dp934
g7
g18
sg9
g19
sbag1
(g2
g3
Ntp935
Rp936
(dp937
g7
g18
sg9
g19
sbag1
(g2
g3
Ntp938
Rp939
(dp940
g7
S'println'
p941
sg9
g24
sbag1
(g2
g3
Ntp942
Rp943
(dp944
g7
g110
sg9
g29
sbag1
(g2
g3
Ntp945
Rp946
(dp947
g7
S'String'
p948
sg9
g24
sbag1
(g2
g3
Ntp949
Rp950
(dp951
g7
g28
sg9
g29
sbag1
(g2
g3
Ntp952
Rp953
(dp954
g7
S'valueOf'
p955
sg9
g24
sbag1
(g2
g3
Ntp956
Rp957
(dp958
g7
g110
sg9
g29
sbag1
(g2
g3
Ntp959
Rp960
(dp961
g7
g768
sg9
g24
sbag1
(g2
g3
Ntp962
Rp963
(dp964
g7
g114
sg9
g29
sbag1
(g2
g3
Ntp965
Rp966
(dp967
g7
g114
sg9
g29
sbag1
(g2
g3
Ntp968
Rp969
(dp970
g7
g37
sg9
g29
sbag1
(g2
g3
Ntp971
Rp972
(dp973
g7
g41
sg9
g19
sbag1
(g2
g3
Ntp974
Rp975
(dp976
g7
g18
sg9
g19
sbag1
(g2
g3
Ntp977
Rp978
(dp979
g7
g18
sg9
g19
sbag1
(g2
g3
Ntp980
Rp981
(dp982
g7
g18
sg9
g19
sbag1
(g2
g3
Ntp983
Rp984
(dp985
g7
g18
sg9
g19
sbag1
(g2
g3
Ntp986
Rp987
(dp988
g7
g139
sg9
g29
sbag1
(g2
g3
Ntp989
Rp990
(dp991
g7
g41
sg9
g19
sbag1
(g2
g3
Ntp992
Rp993
(dp994
g7
g18
sg9
g19
sbag1
(g2
g3
Ntp995
Rp996
(dp997
g7
g18
sg9
g19
sbag1
(g2
g3
Ntp998
Rp999
(dp1000
g7
g18
sg9
g19
sbag1
(g2
g3
Ntp1001
Rp1002
(dp1003
g7
g18
sg9
g19
sbag1
(g2
g3
Ntp1004
Rp1005
(dp1006
g7
S'public'
p1007
sg9
g14
sbag1
(g2
g3
Ntp1008
Rp1009
(dp1010
g7
g18
sg9
g19
sbag1
(g2
g3
Ntp1011
Rp1012
(dp1013
g7
S'void'
p1014
sg9
g14
sbag1
(g2
g3
Ntp1015
Rp1016
(dp1017
g7
g18
sg9
g19
sbag1
(g2
g3
Ntp1018
Rp1019
(dp1020
g7
S'println'
p1021
sg9
g24
sbag1
(g2
g3
Ntp1022
Rp1023
(dp1024
g7
g110
sg9
g29
sbag1
(g2
g3
Ntp1025
Rp1026
(dp1027
g7
S'byte'
p1028
sg9
g14
sbag1
(g2
g3
Ntp1029
Rp1030
(dp1031
g7
g18
sg9
g19
sbag1
(g2
g3
Ntp1032
Rp1033
(dp1034
g7
g768
sg9
g24
sbag1
(g2
g3
Ntp1035
Rp1036
(dp1037
g7
g114
sg9
g29
sbag1
(g2
g3
Ntp1038
Rp1039
(dp1040
g7
g18
sg9
g19
sbag1
(g2
g3
Ntp1041
Rp1042
(dp1043
g7
g80
sg9
g29
sbag1
(g2
g3
Ntp1044
Rp1045
(dp1046
g7
g41
sg9
g19
sbag1
(g2
g3
Ntp1047
Rp1048
(dp1049
g7
g18
sg9
g19
sbag1
(g2
g3
Ntp1050
Rp1051
(dp1052
g7
g18
sg9
g19
sbag1
(g2
g3
Ntp1053
Rp1054
(dp1055
g7
g18
sg9
g19
sbag1
(g2
g3
Ntp1056
Rp1057
(dp1058
g7
g18
sg9
g19
sbag1
(g2
g3
Ntp1059
Rp1060
(dp1061
g7
g18
sg9
g19
sbag1
(g2
g3
Ntp1062
Rp1063
(dp1064
g7
g18
sg9
g19
sbag1
(g2
g3
Ntp1065
Rp1066
(dp1067
g7
g18
sg9
g19
sbag1
(g2
g3
Ntp1068
Rp1069
(dp1070
g7
g18
sg9
g19
sbag1
(g2
g3
Ntp1071
Rp1072
(dp1073
g7
S'println'
p1074
sg9
g24
sbag1
(g2
g3
Ntp1075
Rp1076
(dp1077
g7
g110
sg9
g29
sbag1
(g2
g3
Ntp1078
Rp1079
(dp1080
g7
S'String'
p1081
sg9
g24
sbag1
(g2
g3
Ntp1082
Rp1083
(dp1084
g7
g28
sg9
g29
sbag1
(g2
g3
Ntp1085
Rp1086
(dp1087
g7
S'valueOf'
p1088
sg9
g24
sbag1
(g2
g3
Ntp1089
Rp1090
(dp1091
g7
g110
sg9
g29
sbag1
(g2
g3
Ntp1092
Rp1093
(dp1094
g7
g768
sg9
g24
sbag1
(g2
g3
Ntp1095
Rp1096
(dp1097
g7
g114
sg9
g29
sbag1
(g2
g3
Ntp1098
Rp1099
(dp1100
g7
g114
sg9
g29
sbag1
(g2
g3
Ntp1101
Rp1102
(dp1103
g7
g37
sg9
g29
sbag1
(g2
g3
Ntp1104
Rp1105
(dp1106
g7
g41
sg9
g19
sbag1
(g2
g3
Ntp1107
Rp1108
(dp1109
g7
g18
sg9
g19
sbag1
(g2
g3
Ntp1110
Rp1111
(dp1112
g7
g18
sg9
g19
sbag1
(g2
g3
Ntp1113
Rp1114
(dp1115
g7
g18
sg9
g19
sbag1
(g2
g3
Ntp1116
Rp1117
(dp1118
g7
g18
sg9
g19
sbag1
(g2
g3
Ntp1119
Rp1120
(dp1121
g7
g139
sg9
g29
sbag1
(g2
g3
Ntp1122
Rp1123
(dp1124
g7
g41
sg9
g19
sbag1
(g2
g3
Ntp1125
Rp1126
(dp1127
g7
g18
sg9
g19
sbag1
(g2
g3
Ntp1128
Rp1129
(dp1130
g7
g18
sg9
g19
sbag1
(g2
g3
Ntp1131
Rp1132
(dp1133
g7
g18
sg9
g19
sbag1
(g2
g3
Ntp1134
Rp1135
(dp1136
g7
g18
sg9
g19
sbag1
(g2
g3
Ntp1137
Rp1138
(dp1139
g7
S'public'
p1140
sg9
g14
sbag1
(g2
g3
Ntp1141
Rp1142
(dp1143
g7
g18
sg9
g19
sbag1
(g2
g3
Ntp1144
Rp1145
(dp1146
g7
S'void'
p1147
sg9
g14
sbag1
(g2
g3
Ntp1148
Rp1149
(dp1150
g7
g18
sg9
g19
sbag1
(g2
g3
Ntp1151
Rp1152
(dp1153
g7
S'println'
p1154
sg9
g24
sbag1
(g2
g3
Ntp1155
Rp1156
(dp1157
g7
g110
sg9
g29
sbag1
(g2
g3
Ntp1158
Rp1159
(dp1160
g7
S'char'
p1161
sg9
g14
sbag1
(g2
g3
Ntp1162
Rp1163
(dp1164
g7
g18
sg9
g19
sbag1
(g2
g3
Ntp1165
Rp1166
(dp1167
g7
g768
sg9
g24
sbag1
(g2
g3
Ntp1168
Rp1169
(dp1170
g7
g114
sg9
g29
sbag1
(g2
g3
Ntp1171
Rp1172
(dp1173
g7
g18
sg9
g19
sbag1
(g2
g3
Ntp1174
Rp1175
(dp1176
g7
g80
sg9
g29
sbag1
(g2
g3
Ntp1177
Rp1178
(dp1179
g7
g41
sg9
g19
sbag1
(g2
g3
Ntp1180
Rp1181
(dp1182
g7
g18
sg9
g19
sbag1
(g2
g3
Ntp1183
Rp1184
(dp1185
g7
g18
sg9
g19
sbag1
(g2
g3
Ntp1186
Rp1187
(dp1188
g7
g18
sg9
g19
sbag1
(g2
g3
Ntp1189
Rp1190
(dp1191
g7
g18
sg9
g19
sbag1
(g2
g3
Ntp1192
Rp1193
(dp1194
g7
g18
sg9
g19
sbag1
(g2
g3
Ntp1195
Rp1196
(dp1197
g7
g18
sg9
g19
sbag1
(g2
g3
Ntp1198
Rp1199
(dp1200
g7
g18
sg9
g19
sbag1
(g2
g3
Ntp1201
Rp1202
(dp1203
g7
g18
sg9
g19
sbag1
(g2
g3
Ntp1204
Rp1205
(dp1206
g7
S'println'
p1207
sg9
g24
sbag1
(g2
g3
Ntp1208
Rp1209
(dp1210
g7
g110
sg9
g29
sbag1
(g2
g3
Ntp1211
Rp1212
(dp1213
g7
S'String'
p1214
sg9
g24
sbag1
(g2
g3
Ntp1215
Rp1216
(dp1217
g7
g28
sg9
g29
sbag1
(g2
g3
Ntp1218
Rp1219
(dp1220
g7
S'valueOf'
p1221
sg9
g24
sbag1
(g2
g3
Ntp1222
Rp1223
(dp1224
g7
g110
sg9
g29
sbag1
(g2
g3
Ntp1225
Rp1226
(dp1227
g7
g768
sg9
g24
sbag1
(g2
g3
Ntp1228
Rp1229
(dp1230
g7
g114
sg9
g29
sbag1
(g2
g3
Ntp1231
Rp1232
(dp1233
g7
g114
sg9
g29
sbag1
(g2
g3
Ntp1234
Rp1235
(dp1236
g7
g37
sg9
g29
sbag1
(g2
g3
Ntp1237
Rp1238
(dp1239
g7
g41
sg9
g19
sbag1
(g2
g3
Ntp1240
Rp1241
(dp1242
g7
g18
sg9
g19
sbag1
(g2
g3
Ntp1243
Rp1244
(dp1245
g7
g18
sg9
g19
sbag1
(g2
g3
Ntp1246
Rp1247
(dp1248
g7
g18
sg9
g19
sbag1
(g2
g3
Ntp1249
Rp1250
(dp1251
g7
g18
sg9
g19
sbag1
(g2
g3
Ntp1252
Rp1253
(dp1254
g7
g139
sg9
g29
sbag1
(g2
g3
Ntp1255
Rp1256
(dp1257
g7
g41
sg9
g19
sbag1
(g2
g3
Ntp1258
Rp1259
(dp1260
g7
g18
sg9
g19
sbag1
(g2
g3
Ntp1261
Rp1262
(dp1263
g7
g18
sg9
g19
sbag1
(g2
g3
Ntp1264
Rp1265
(dp1266
g7
g18
sg9
g19
sbag1
(g2
g3
Ntp1267
Rp1268
(dp1269
g7
g18
sg9
g19
sbag1
(g2
g3
Ntp1270
Rp1271
(dp1272
g7
S'public'
p1273
sg9
g14
sbag1
(g2
g3
Ntp1274
Rp1275
(dp1276
g7
g18
sg9
g19
sbag1
(g2
g3
Ntp1277
Rp1278
(dp1279
g7
S'void'
p1280
sg9
g14
sbag1
(g2
g3
Ntp1281
Rp1282
(dp1283
g7
g18
sg9
g19
sbag1
(g2
g3
Ntp1284
Rp1285
(dp1286
g7
S'println'
p1287
sg9
g24
sbag1
(g2
g3
Ntp1288
Rp1289
(dp1290
g7
g110
sg9
g29
sbag1
(g2
g3
Ntp1291
Rp1292
(dp1293
g7
S'short'
p1294
sg9
g14
sbag1
(g2
g3
Ntp1295
Rp1296
(dp1297
g7
g18
sg9
g19
sbag1
(g2
g3
Ntp1298
Rp1299
(dp1300
g7
g768
sg9
g24
sbag1
(g2
g3
Ntp1301
Rp1302
(dp1303
g7
g114
sg9
g29
sbag1
(g2
g3
Ntp1304
Rp1305
(dp1306
g7
g18
sg9
g19
sbag1
(g2
g3
Ntp1307
Rp1308
(dp1309
g7
g80
sg9
g29
sbag1
(g2
g3
Ntp1310
Rp1311
(dp1312
g7
g41
sg9
g19
sbag1
(g2
g3
Ntp1313
Rp1314
(dp1315
g7
g18
sg9
g19
sbag1
(g2
g3
Ntp1316
Rp1317
(dp1318
g7
g18
sg9
g19
sbag1
(g2
g3
Ntp1319
Rp1320
(dp1321
g7
g18
sg9
g19
sbag1
(g2
g3
Ntp1322
Rp1323
(dp1324
g7
g18
sg9
g19
sbag1
(g2
g3
Ntp1325
Rp1326
(dp1327
g7
g18
sg9
g19
sbag1
(g2
g3
Ntp1328
Rp1329
(dp1330
g7
g18
sg9
g19
sbag1
(g2
g3
Ntp1331
Rp1332
(dp1333
g7
g18
sg9
g19
sbag1
(g2
g3
Ntp1334
Rp1335
(dp1336
g7
g18
sg9
g19
sbag1
(g2
g3
Ntp1337
Rp1338
(dp1339
g7
S'println'
p1340
sg9
g24
sbag1
(g2
g3
Ntp1341
Rp1342
(dp1343
g7
g110
sg9
g29
sbag1
(g2
g3
Ntp1344
Rp1345
(dp1346
g7
S'String'
p1347
sg9
g24
sbag1
(g2
g3
Ntp1348
Rp1349
(dp1350
g7
g28
sg9
g29
sbag1
(g2
g3
Ntp1351
Rp1352
(dp1353
g7
S'valueOf'
p1354
sg9
g24
sbag1
(g2
g3
Ntp1355
Rp1356
(dp1357
g7
g110
sg9
g29
sbag1
(g2
g3
Ntp1358
Rp1359
(dp1360
g7
g768
sg9
g24
sbag1
(g2
g3
Ntp1361
Rp1362
(dp1363
g7
g114
sg9
g29
sbag1
(g2
g3
Ntp1364
Rp1365
(dp1366
g7
g114
sg9
g29
sbag1
(g2
g3
Ntp1367
Rp1368
(dp1369
g7
g37
sg9
g29
sbag1
(g2
g3
Ntp1370
Rp1371
(dp1372
g7
g41
sg9
g19
sbag1
(g2
g3
Ntp1373
Rp1374
(dp1375
g7
g18
sg9
g19
sbag1
(g2
g3
Ntp1376
Rp1377
(dp1378
g7
g18
sg9
g19
sbag1
(g2
g3
Ntp1379
Rp1380
(dp1381
g7
g18
sg9
g19
sbag1
(g2
g3
Ntp1382
Rp1383
(dp1384
g7
g18
sg9
g19
sbag1
(g2
g3
Ntp1385
Rp1386
(dp1387
g7
g139
sg9
g29
sbag1
(g2
g3
Ntp1388
Rp1389
(dp1390
g7
g41
sg9
g19
sbag1
(g2
g3
Ntp1391
Rp1392
(dp1393
g7
g18
sg9
g19
sbag1
(g2
g3
Ntp1394
Rp1395
(dp1396
g7
g18
sg9
g19
sbag1
(g2
g3
Ntp1397
Rp1398
(dp1399
g7
g18
sg9
g19
sbag1
(g2
g3
Ntp1400
Rp1401
(dp1402
g7
g18
sg9
g19
sbag1
(g2
g3
Ntp1403
Rp1404
(dp1405
g7
S'public'
p1406
sg9
g14
sbag1
(g2
g3
Ntp1407
Rp1408
(dp1409
g7
g18
sg9
g19
sbag1
(g2
g3
Ntp1410
Rp1411
(dp1412
g7
S'void'
p1413
sg9
g14
sbag1
(g2
g3
Ntp1414
Rp1415
(dp1416
g7
g18
sg9
g19
sbag1
(g2
g3
Ntp1417
Rp1418
(dp1419
g7
S'println'
p1420
sg9
g24
sbag1
(g2
g3
Ntp1421
Rp1422
(dp1423
g7
g110
sg9
g29
sbag1
(g2
g3
Ntp1424
Rp1425
(dp1426
g7
S'int'
p1427
sg9
g14
sbag1
(g2
g3
Ntp1428
Rp1429
(dp1430
g7
g18
sg9
g19
sbag1
(g2
g3
Ntp1431
Rp1432
(dp1433
g7
g768
sg9
g24
sbag1
(g2
g3
Ntp1434
Rp1435
(dp1436
g7
g114
sg9
g29
sbag1
(g2
g3
Ntp1437
Rp1438
(dp1439
g7
g18
sg9
g19
sbag1
(g2
g3
Ntp1440
Rp1441
(dp1442
g7
g80
sg9
g29
sbag1
(g2
g3
Ntp1443
Rp1444
(dp1445
g7
g41
sg9
g19
sbag1
(g2
g3
Ntp1446
Rp1447
(dp1448
g7
g18
sg9
g19
sbag1
(g2
g3
Ntp1449
Rp1450
(dp1451
g7
g18
sg9
g19
sbag1
(g2
g3
Ntp1452
Rp1453
(dp1454
g7
g18
sg9
g19
sbag1
(g2
g3
Ntp1455
Rp1456
(dp1457
g7
g18
sg9
g19
sbag1
(g2
g3
Ntp1458
Rp1459
(dp1460
g7
g18
sg9
g19
sbag1
(g2
g3
Ntp1461
Rp1462
(dp1463
g7
g18
sg9
g19
sbag1
(g2
g3
Ntp1464
Rp1465
(dp1466
g7
g18
sg9
g19
sbag1
(g2
g3
Ntp1467
Rp1468
(dp1469
g7
g18
sg9
g19
sbag1
(g2
g3
Ntp1470
Rp1471
(dp1472
g7
S'println'
p1473
sg9
g24
sbag1
(g2
g3
Ntp1474
Rp1475
(dp1476
g7
g110
sg9
g29
sbag1
(g2
g3
Ntp1477
Rp1478
(dp1479
g7
S'String'
p1480
sg9
g24
sbag1
(g2
g3
Ntp1481
Rp1482
(dp1483
g7
g28
sg9
g29
sbag1
(g2
g3
Ntp1484
Rp1485
(dp1486
g7
S'valueOf'
p1487
sg9
g24
sbag1
(g2
g3
Ntp1488
Rp1489
(dp1490
g7
g110
sg9
g29
sbag1
(g2
g3
Ntp1491
Rp1492
(dp1493
g7
g768
sg9
g24
sbag1
(g2
g3
Ntp1494
Rp1495
(dp1496
g7
g114
sg9
g29
sbag1
(g2
g3
Ntp1497
Rp1498
(dp1499
g7
g114
sg9
g29
sbag1
(g2
g3
Ntp1500
Rp1501
(dp1502
g7
g37
sg9
g29
sbag1
(g2
g3
Ntp1503
Rp1504
(dp1505
g7
g41
sg9
g19
sbag1
(g2
g3
Ntp1506
Rp1507
(dp1508
g7
g18
sg9
g19
sbag1
(g2
g3
Ntp1509
Rp1510
(dp1511
g7
g18
sg9
g19
sbag1
(g2
g3
Ntp1512
Rp1513
(dp1514
g7
g18
sg9
g19
sbag1
(g2
g3
Ntp1515
Rp1516
(dp1517
g7
g18
sg9
g19
sbag1
(g2
g3
Ntp1518
Rp1519
(dp1520
g7
g139
sg9
g29
sbag1
(g2
g3
Ntp1521
Rp1522
(dp1523
g7
g41
sg9
g19
sbag1
(g2
g3
Ntp1524
Rp1525
(dp1526
g7
g18
sg9
g19
sbag1
(g2
g3
Ntp1527
Rp1528
(dp1529
g7
g18
sg9
g19
sbag1
(g2
g3
Ntp1530
Rp1531
(dp1532
g7
g18
sg9
g19
sbag1
(g2
g3
Ntp1533
Rp1534
(dp1535
g7
g18
sg9
g19
sbag1
(g2
g3
Ntp1536
Rp1537
(dp1538
g7
S'public'
p1539
sg9
g14
sbag1
(g2
g3
Ntp1540
Rp1541
(dp1542
g7
g18
sg9
g19
sbag1
(g2
g3
Ntp1543
Rp1544
(dp1545
g7
S'void'
p1546
sg9
g14
sbag1
(g2
g3
Ntp1547
Rp1548
(dp1549
g7
g18
sg9
g19
sbag1
(g2
g3
Ntp1550
Rp1551
(dp1552
g7
S'print'
p1553
sg9
g24
sbag1
(g2
g3
Ntp1554
Rp1555
(dp1556
g7
g110
sg9
g29
sbag1
(g2
g3
Ntp1557
Rp1558
(dp1559
g7
S'Object'
p1560
sg9
g24
sbag1
(g2
g3
Ntp1561
Rp1562
(dp1563
g7
g18
sg9
g19
sbag1
(g2
g3
Ntp1564
Rp1565
(dp1566
g7
g768
sg9
g24
sbag1
(g2
g3
Ntp1567
Rp1568
(dp1569
g7
g114
sg9
g29
sbag1
(g2
g3
Ntp1570
Rp1571
(dp1572
g7
g18
sg9
g19
sbag1
(g2
g3
Ntp1573
Rp1574
(dp1575
g7
g80
sg9
g29
sbag1
(g2
g3
Ntp1576
Rp1577
(dp1578
g7
g41
sg9
g19
sbag1
(g2
g3
Ntp1579
Rp1580
(dp1581
g7
g18
sg9
g19
sbag1
(g2
g3
Ntp1582
Rp1583
(dp1584
g7
g18
sg9
g19
sbag1
(g2
g3
Ntp1585
Rp1586
(dp1587
g7
g18
sg9
g19
sbag1
(g2
g3
Ntp1588
Rp1589
(dp1590
g7
g18
sg9
g19
sbag1
(g2
g3
Ntp1591
Rp1592
(dp1593
g7
g18
sg9
g19
sbag1
(g2
g3
Ntp1594
Rp1595
(dp1596
g7
g18
sg9
g19
sbag1
(g2
g3
Ntp1597
Rp1598
(dp1599
g7
g18
sg9
g19
sbag1
(g2
g3
Ntp1600
Rp1601
(dp1602
g7
g18
sg9
g19
sbag1
(g2
g3
Ntp1603
Rp1604
(dp1605
g7
S'print'
p1606
sg9
g24
sbag1
(g2
g3
Ntp1607
Rp1608
(dp1609
g7
g110
sg9
g29
sbag1
(g2
g3
Ntp1610
Rp1611
(dp1612
g7
S'String'
p1613
sg9
g24
sbag1
(g2
g3
Ntp1614
Rp1615
(dp1616
g7
g28
sg9
g29
sbag1
(g2
g3
Ntp1617
Rp1618
(dp1619
g7
S'valueOf'
p1620
sg9
g24
sbag1
(g2
g3
Ntp1621
Rp1622
(dp1623
g7
g110
sg9
g29
sbag1
(g2
g3
Ntp1624
Rp1625
(dp1626
g7
g768
sg9
g24
sbag1
(g2
g3
Ntp1627
Rp1628
(dp1629
g7
g114
sg9
g29
sbag1
(g2
g3
Ntp1630
Rp1631
(dp1632
g7
g114
sg9
g29
sbag1
(g2
g3
Ntp1633
Rp1634
(dp1635
g7
g37
sg9
g29
sbag1
(g2
g3
Ntp1636
Rp1637
(dp1638
g7
g41
sg9
g19
sbag1
(g2
g3
Ntp1639
Rp1640
(dp1641
g7
g18
sg9
g19
sbag1
(g2
g3
Ntp1642
Rp1643
(dp1644
g7
g18
sg9
g19
sbag1
(g2
g3
Ntp1645
Rp1646
(dp1647
g7
g18
sg9
g19
sbag1
(g2
g3
Ntp1648
Rp1649
(dp1650
g7
g18
sg9
g19
sbag1
(g2
g3
Ntp1651
Rp1652
(dp1653
g7
g139
sg9
g29
sbag1
(g2
g3
Ntp1654
Rp1655
(dp1656
g7
g41
sg9
g19
sbag1
(g2
g3
Ntp1657
Rp1658
(dp1659
g7
g18
sg9
g19
sbag1
(g2
g3
Ntp1660
Rp1661
(dp1662
g7
g18
sg9
g19
sbag1
(g2
g3
Ntp1663
Rp1664
(dp1665
g7
g18
sg9
g19
sbag1
(g2
g3
Ntp1666
Rp1667
(dp1668
g7
g18
sg9
g19
sbag1
(g2
g3
Ntp1669
Rp1670
(dp1671
g7
S'public'
p1672
sg9
g14
sbag1
(g2
g3
Ntp1673
Rp1674
(dp1675
g7
g18
sg9
g19
sbag1
(g2
g3
Ntp1676
Rp1677
(dp1678
g7
S'void'
p1679
sg9
g14
sbag1
(g2
g3
Ntp1680
Rp1681
(dp1682
g7
g18
sg9
g19
sbag1
(g2
g3
Ntp1683
Rp1684
(dp1685
g7
S'print'
p1686
sg9
g24
sbag1
(g2
g3
Ntp1687
Rp1688
(dp1689
g7
g110
sg9
g29
sbag1
(g2
g3
Ntp1690
Rp1691
(dp1692
g7
S'boolean'
p1693
sg9
g14
sbag1
(g2
g3
Ntp1694
Rp1695
(dp1696
g7
g18
sg9
g19
sbag1
(g2
g3
Ntp1697
Rp1698
(dp1699
g7
g768
sg9
g24
sbag1
(g2
g3
Ntp1700
Rp1701
(dp1702
g7
g114
sg9
g29
sbag1
(g2
g3
Ntp1703
Rp1704
(dp1705
g7
g18
sg9
g19
sbag1
(g2
g3
Ntp1706
Rp1707
(dp1708
g7
g80
sg9
g29
sbag1
(g2
g3
Ntp1709
Rp1710
(dp1711
g7
g41
sg9
g19
sbag1
(g2
g3
Ntp1712
Rp1713
(dp1714
g7
g18
sg9
g19
sbag1
(g2
g3
Ntp1715
Rp1716
(dp1717
g7
g18
sg9
g19
sbag1
(g2
g3
Ntp1718
Rp1719
(dp1720
g7
g18
sg9
g19
sbag1
(g2
g3
Ntp1721
Rp1722
(dp1723
g7
g18
sg9
g19
sbag1
(g2
g3
Ntp1724
Rp1725
(dp1726
g7
g18
sg9
g19
sbag1
(g2
g3
Ntp1727
Rp1728
(dp1729
g7
g18
sg9
g19
sbag1
(g2
g3
Ntp1730
Rp1731
(dp1732
g7
g18
sg9
g19
sbag1
(g2
g3
Ntp1733
Rp1734
(dp1735
g7
g18
sg9
g19
sbag1
(g2
g3
Ntp1736
Rp1737
(dp1738
g7
S'print'
p1739
sg9
g24
sbag1
(g2
g3
Ntp1740
Rp1741
(dp1742
g7
g110
sg9
g29
sbag1
(g2
g3
Ntp1743
Rp1744
(dp1745
g7
S'String'
p1746
sg9
g24
sbag1
(g2
g3
Ntp1747
Rp1748
(dp1749
g7
g28
sg9
g29
sbag1
(g2
g3
Ntp1750
Rp1751
(dp1752
g7
S'valueOf'
p1753
sg9
g24
sbag1
(g2
g3
Ntp1754
Rp1755
(dp1756
g7
g110
sg9
g29
sbag1
(g2
g3
Ntp1757
Rp1758
(dp1759
g7
g768
sg9
g24
sbag1
(g2
g3
Ntp1760
Rp1761
(dp1762
g7
g114
sg9
g29
sbag1
(g2
g3
Ntp1763
Rp1764
(dp1765
g7
g114
sg9
g29
sbag1
(g2
g3
Ntp1766
Rp1767
(dp1768
g7
g37
sg9
g29
sbag1
(g2
g3
Ntp1769
Rp1770
(dp1771
g7
g41
sg9
g19
sbag1
(g2
g3
Ntp1772
Rp1773
(dp1774
g7
g18
sg9
g19
sbag1
(g2
g3
Ntp1775
Rp1776
(dp1777
g7
g18
sg9
g19
sbag1
(g2
g3
Ntp1778
Rp1779
(dp1780
g7
g18
sg9
g19
sbag1
(g2
g3
Ntp1781
Rp1782
(dp1783
g7
g18
sg9
g19
sbag1
(g2
g3
Ntp1784
Rp1785
(dp1786
g7
g139
sg9
g29
sbag1
(g2
g3
Ntp1787
Rp1788
(dp1789
g7
g41
sg9
g19
sbag1
(g2
g3
Ntp1790
Rp1791
(dp1792
g7
g18
sg9
g19
sbag1
(g2
g3
Ntp1793
Rp1794
(dp1795
g7
g18
sg9
g19
sbag1
(g2
g3
Ntp1796
Rp1797
(dp1798
g7
g18
sg9
g19
sbag1
(g2
g3
Ntp1799
Rp1800
(dp1801
g7
g18
sg9
g19
sbag1
(g2
g3
Ntp1802
Rp1803
(dp1804
g7
S'public'
p1805
sg9
g14
sbag1
(g2
g3
Ntp1806
Rp1807
(dp1808
g7
g18
sg9
g19
sbag1
(g2
g3
Ntp1809
Rp1810
(dp1811
g7
S'void'
p1812
sg9
g14
sbag1
(g2
g3
Ntp1813
Rp1814
(dp1815
g7
g18
sg9
g19
sbag1
(g2
g3
Ntp1816
Rp1817
(dp1818
g7
S'print'
p1819
sg9
g24
sbag1
(g2
g3
Ntp1820
Rp1821
(dp1822
g7
g110
sg9
g29
sbag1
(g2
g3
Ntp1823
Rp1824
(dp1825
g7
S'byte'
p1826
sg9
g14
sbag1
(g2
g3
Ntp1827
Rp1828
(dp1829
g7
g18
sg9
g19
sbag1
(g2
g3
Ntp1830
Rp1831
(dp1832
g7
g768
sg9
g24
sbag1
(g2
g3
Ntp1833
Rp1834
(dp1835
g7
g114
sg9
g29
sbag1
(g2
g3
Ntp1836
Rp1837
(dp1838
g7
g18
sg9
g19
sbag1
(g2
g3
Ntp1839
Rp1840
(dp1841
g7
g80
sg9
g29
sbag1
(g2
g3
Ntp1842
Rp1843
(dp1844
g7
g41
sg9
g19
sbag1
(g2
g3
Ntp1845
Rp1846
(dp1847
g7
g18
sg9
g19
sbag1
(g2
g3
Ntp1848
Rp1849
(dp1850
g7
g18
sg9
g19
sbag1
(g2
g3
Ntp1851
Rp1852
(dp1853
g7
g18
sg9
g19
sbag1
(g2
g3
Ntp1854
Rp1855
(dp1856
g7
g18
sg9
g19
sbag1
(g2
g3
Ntp1857
Rp1858
(dp1859
g7
g18
sg9
g19
sbag1
(g2
g3
Ntp1860
Rp1861
(dp1862
g7
g18
sg9
g19
sbag1
(g2
g3
Ntp1863
Rp1864
(dp1865
g7
g18
sg9
g19
sbag1
(g2
g3
Ntp1866
Rp1867
(dp1868
g7
g18
sg9
g19
sbag1
(g2
g3
Ntp1869
Rp1870
(dp1871
g7
S'print'
p1872
sg9
g24
sbag1
(g2
g3
Ntp1873
Rp1874
(dp1875
g7
g110
sg9
g29
sbag1
(g2
g3
Ntp1876
Rp1877
(dp1878
g7
S'String'
p1879
sg9
g24
sbag1
(g2
g3
Ntp1880
Rp1881
(dp1882
g7
g28
sg9
g29
sbag1
(g2
g3
Ntp1883
Rp1884
(dp1885
g7
S'valueOf'
p1886
sg9
g24
sbag1
(g2
g3
Ntp1887
Rp1888
(dp1889
g7
g110
sg9
g29
sbag1
(g2
g3
Ntp1890
Rp1891
(dp1892
g7
g768
sg9
g24
sbag1
(g2
g3
Ntp1893
Rp1894
(dp1895
g7
g114
sg9
g29
sbag1
(g2
g3
Ntp1896
Rp1897
(dp1898
g7
g114
sg9
g29
sbag1
(g2
g3
Ntp1899
Rp1900
(dp1901
g7
g37
sg9
g29
sbag1
(g2
g3
Ntp1902
Rp1903
(dp1904
g7
g41
sg9
g19
sbag1
(g2
g3
Ntp1905
Rp1906
(dp1907
g7
g18
sg9
g19
sbag1
(g2
g3
Ntp1908
Rp1909
(dp1910
g7
g18
sg9
g19
sbag1
(g2
g3
Ntp1911
Rp1912
(dp1913
g7
g18
sg9
g19
sbag1
(g2
g3
Ntp1914
Rp1915
(dp1916
g7
g18
sg9
g19
sbag1
(g2
g3
Ntp1917
Rp1918
(dp1919
g7
g139
sg9
g29
sbag1
(g2
g3
Ntp1920
Rp1921
(dp1922
g7
g41
sg9
g19
sbag1
(g2
g3
Ntp1923
Rp1924
(dp1925
g7
g18
sg9
g19
sbag1
(g2
g3
Ntp1926
Rp1927
(dp1928
g7
g18
sg9
g19
sbag1
(g2
g3
Ntp1929
Rp1930
(dp1931
g7
g18
sg9
g19
sbag1
(g2
g3
Ntp1932
Rp1933
(dp1934
g7
g18
sg9
g19
sbag1
(g2
g3
Ntp1935
Rp1936
(dp1937
g7
S'public'
p1938
sg9
g14
sbag1
(g2
g3
Ntp1939
Rp1940
(dp1941
g7
g18
sg9
g19
sbag1
(g2
g3
Ntp1942
Rp1943
(dp1944
g7
S'void'
p1945
sg9
g14
sbag1
(g2
g3
Ntp1946
Rp1947
(dp1948
g7
g18
sg9
g19
sbag1
(g2
g3
Ntp1949
Rp1950
(dp1951
g7
S'print'
p1952
sg9
g24
sbag1
(g2
g3
Ntp1953
Rp1954
(dp1955
g7
g110
sg9
g29
sbag1
(g2
g3
Ntp1956
Rp1957
(dp1958
g7
S'char'
p1959
sg9
g14
sbag1
(g2
g3
Ntp1960
Rp1961
(dp1962
g7
g18
sg9
g19
sbag1
(g2
g3
Ntp1963
Rp1964
(dp1965
g7
g768
sg9
g24
sbag1
(g2
g3
Ntp1966
Rp1967
(dp1968
g7
g114
sg9
g29
sbag1
(g2
g3
Ntp1969
Rp1970
(dp1971
g7
g18
sg9
g19
sbag1
(g2
g3
Ntp1972
Rp1973
(dp1974
g7
g80
sg9
g29
sbag1
(g2
g3
Ntp1975
Rp1976
(dp1977
g7
g41
sg9
g19
sbag1
(g2
g3
Ntp1978
Rp1979
(dp1980
g7
g18
sg9
g19
sbag1
(g2
g3
Ntp1981
Rp1982
(dp1983
g7
g18
sg9
g19
sbag1
(g2
g3
Ntp1984
Rp1985
(dp1986
g7
g18
sg9
g19
sbag1
(g2
g3
Ntp1987
Rp1988
(dp1989
g7
g18
sg9
g19
sbag1
(g2
g3
Ntp1990
Rp1991
(dp1992
g7
g18
sg9
g19
sbag1
(g2
g3
Ntp1993
Rp1994
(dp1995
g7
g18
sg9
g19
sbag1
(g2
g3
Ntp1996
Rp1997
(dp1998
g7
g18
sg9
g19
sbag1
(g2
g3
Ntp1999
Rp2000
(dp2001
g7
g18
sg9
g19
sbag1
(g2
g3
Ntp2002
Rp2003
(dp2004
g7
S'print'
p2005
sg9
g24
sbag1
(g2
g3
Ntp2006
Rp2007
(dp2008
g7
g110
sg9
g29
sbag1
(g2
g3
Ntp2009
Rp2010
(dp2011
g7
S'String'
p2012
sg9
g24
sbag1
(g2
g3
Ntp2013
Rp2014
(dp2015
g7
g28
sg9
g29
sbag1
(g2
g3
Ntp2016
Rp2017
(dp2018
g7
S'valueOf'
p2019
sg9
g24
sbag1
(g2
g3
Ntp2020
Rp2021
(dp2022
g7
g110
sg9
g29
sbag1
(g2
g3
Ntp2023
Rp2024
(dp2025
g7
g768
sg9
g24
sbag1
(g2
g3
Ntp2026
Rp2027
(dp2028
g7
g114
sg9
g29
sbag1
(g2
g3
Ntp2029
Rp2030
(dp2031
g7
g114
sg9
g29
sbag1
(g2
g3
Ntp2032
Rp2033
(dp2034
g7
g37
sg9
g29
sbag1
(g2
g3
Ntp2035
Rp2036
(dp2037
g7
g41
sg9
g19
sbag1
(g2
g3
Ntp2038
Rp2039
(dp2040
g7
g18
sg9
g19
sbag1
(g2
g3
Ntp2041
Rp2042
(dp2043
g7
g18
sg9
g19
sbag1
(g2
g3
Ntp2044
Rp2045
(dp2046
g7
g18
sg9
g19
sbag1
(g2
g3
Ntp2047
Rp2048
(dp2049
g7
g18
sg9
g19
sbag1
(g2
g3
Ntp2050
Rp2051
(dp2052
g7
g139
sg9
g29
sbag1
(g2
g3
Ntp2053
Rp2054
(dp2055
g7
g41
sg9
g19
sbag1
(g2
g3
Ntp2056
Rp2057
(dp2058
g7
g18
sg9
g19
sbag1
(g2
g3
Ntp2059
Rp2060
(dp2061
g7
g18
sg9
g19
sbag1
(g2
g3
Ntp2062
Rp2063
(dp2064
g7
g18
sg9
g19
sbag1
(g2
g3
Ntp2065
Rp2066
(dp2067
g7
g18
sg9
g19
sbag1
(g2
g3
Ntp2068
Rp2069
(dp2070
g7
S'public'
p2071
sg9
g14
sbag1
(g2
g3
Ntp2072
Rp2073
(dp2074
g7
g18
sg9
g19
sbag1
(g2
g3
Ntp2075
Rp2076
(dp2077
g7
S'void'
p2078
sg9
g14
sbag1
(g2
g3
Ntp2079
Rp2080
(dp2081
g7
g18
sg9
g19
sbag1
(g2
g3
Ntp2082
Rp2083
(dp2084
g7
S'print'
p2085
sg9
g24
sbag1
(g2
g3
Ntp2086
Rp2087
(dp2088
g7
g110
sg9
g29
sbag1
(g2
g3
Ntp2089
Rp2090
(dp2091
g7
S'short'
p2092
sg9
g14
sbag1
(g2
g3
Ntp2093
Rp2094
(dp2095
g7
g18
sg9
g19
sbag1
(g2
g3
Ntp2096
Rp2097
(dp2098
g7
g768
sg9
g24
sbag1
(g2
g3
Ntp2099
Rp2100
(dp2101
g7
g114
sg9
g29
sbag1
(g2
g3
Ntp2102
Rp2103
(dp2104
g7
g18
sg9
g19
sbag1
(g2
g3
Ntp2105
Rp2106
(dp2107
g7
g80
sg9
g29
sbag1
(g2
g3
Ntp2108
Rp2109
(dp2110
g7
g41
sg9
g19
sbag1
(g2
g3
Ntp2111
Rp2112
(dp2113
g7
g18
sg9
g19
sbag1
(g2
g3
Ntp2114
Rp2115
(dp2116
g7
g18
sg9
g19
sbag1
(g2
g3
Ntp2117
Rp2118
(dp2119
g7
g18
sg9
g19
sbag1
(g2
g3
Ntp2120
Rp2121
(dp2122
g7
g18
sg9
g19
sbag1
(g2
g3
Ntp2123
Rp2124
(dp2125
g7
g18
sg9
g19
sbag1
(g2
g3
Ntp2126
Rp2127
(dp2128
g7
g18
sg9
g19
sbag1
(g2
g3
Ntp2129
Rp2130
(dp2131
g7
g18
sg9
g19
sbag1
(g2
g3
Ntp2132
Rp2133
(dp2134
g7
g18
sg9
g19
sbag1
(g2
g3
Ntp2135
Rp2136
(dp2137
g7
S'print'
p2138
sg9
g24
sbag1
(g2
g3
Ntp2139
Rp2140
(dp2141
g7
g110
sg9
g29
sbag1
(g2
g3
Ntp2142
Rp2143
(dp2144
g7
S'String'
p2145
sg9
g24
sbag1
(g2
g3
Ntp2146
Rp2147
(dp2148
g7
g28
sg9
g29
sbag1
(g2
g3
Ntp2149
Rp2150
(dp2151
g7
S'valueOf'
p2152
sg9
g24
sbag1
(g2
g3
Ntp2153
Rp2154
(dp2155
g7
g110
sg9
g29
sbag1
(g2
g3
Ntp2156
Rp2157
(dp2158
g7
g768
sg9
g24
sbag1
(g2
g3
Ntp2159
Rp2160
(dp2161
g7
g114
sg9
g29
sbag1
(g2
g3
Ntp2162
Rp2163
(dp2164
g7
g114
sg9
g29
sbag1
(g2
g3
Ntp2165
Rp2166
(dp2167
g7
g37
sg9
g29
sbag1
(g2
g3
Ntp2168
Rp2169
(dp2170
g7
g41
sg9
g19
sbag1
(g2
g3
Ntp2171
Rp2172
(dp2173
g7
g18
sg9
g19
sbag1
(g2
g3
Ntp2174
Rp2175
(dp2176
g7
g18
sg9
g19
sbag1
(g2
g3
Ntp2177
Rp2178
(dp2179
g7
g18
sg9
g19
sbag1
(g2
g3
Ntp2180
Rp2181
(dp2182
g7
g18
sg9
g19
sbag1
(g2
g3
Ntp2183
Rp2184
(dp2185
g7
g139
sg9
g29
sbag1
(g2
g3
Ntp2186
Rp2187
(dp2188
g7
g41
sg9
g19
sbag1
(g2
g3
Ntp2189
Rp2190
(dp2191
g7
g18
sg9
g19
sbag1
(g2
g3
Ntp2192
Rp2193
(dp2194
g7
g18
sg9
g19
sbag1
(g2
g3
Ntp2195
Rp2196
(dp2197
g7
g18
sg9
g19
sbag1
(g2
g3
Ntp2198
Rp2199
(dp2200
g7
g18
sg9
g19
sbag1
(g2
g3
Ntp2201
Rp2202
(dp2203
g7
S'public'
p2204
sg9
g14
sbag1
(g2
g3
Ntp2205
Rp2206
(dp2207
g7
g18
sg9
g19
sbag1
(g2
g3
Ntp2208
Rp2209
(dp2210
g7
S'void'
p2211
sg9
g14
sbag1
(g2
g3
Ntp2212
Rp2213
(dp2214
g7
g18
sg9
g19
sbag1
(g2
g3
Ntp2215
Rp2216
(dp2217
g7
S'print'
p2218
sg9
g24
sbag1
(g2
g3
Ntp2219
Rp2220
(dp2221
g7
g110
sg9
g29
sbag1
(g2
g3
Ntp2222
Rp2223
(dp2224
g7
S'int'
p2225
sg9
g14
sbag1
(g2
g3
Ntp2226
Rp2227
(dp2228
g7
g18
sg9
g19
sbag1
(g2
g3
Ntp2229
Rp2230
(dp2231
g7
g768
sg9
g24
sbag1
(g2
g3
Ntp2232
Rp2233
(dp2234
g7
g114
sg9
g29
sbag1
(g2
g3
Ntp2235
Rp2236
(dp2237
g7
g18
sg9
g19
sbag1
(g2
g3
Ntp2238
Rp2239
(dp2240
g7
g80
sg9
g29
sbag1
(g2
g3
Ntp2241
Rp2242
(dp2243
g7
g41
sg9
g19
sbag1
(g2
g3
Ntp2244
Rp2245
(dp2246
g7
g18
sg9
g19
sbag1
(g2
g3
Ntp2247
Rp2248
(dp2249
g7
g18
sg9
g19
sbag1
(g2
g3
Ntp2250
Rp2251
(dp2252
g7
g18
sg9
g19
sbag1
(g2
g3
Ntp2253
Rp2254
(dp2255
g7
g18
sg9
g19
sbag1
(g2
g3
Ntp2256
Rp2257
(dp2258
g7
g18
sg9
g19
sbag1
(g2
g3
Ntp2259
Rp2260
(dp2261
g7
g18
sg9
g19
sbag1
(g2
g3
Ntp2262
Rp2263
(dp2264
g7
g18
sg9
g19
sbag1
(g2
g3
Ntp2265
Rp2266
(dp2267
g7
g18
sg9
g19
sbag1
(g2
g3
Ntp2268
Rp2269
(dp2270
g7
S'println'
p2271
sg9
g24
sbag1
(g2
g3
Ntp2272
Rp2273
(dp2274
g7
g110
sg9
g29
sbag1
(g2
g3
Ntp2275
Rp2276
(dp2277
g7
S'String'
p2278
sg9
g24
sbag1
(g2
g3
Ntp2279
Rp2280
(dp2281
g7
g28
sg9
g29
sbag1
(g2
g3
Ntp2282
Rp2283
(dp2284
g7
S'valueOf'
p2285
sg9
g24
sbag1
(g2
g3
Ntp2286
Rp2287
(dp2288
g7
g110
sg9
g29
sbag1
(g2
g3
Ntp2289
Rp2290
(dp2291
g7
g768
sg9
g24
sbag1
(g2
g3
Ntp2292
Rp2293
(dp2294
g7
g114
sg9
g29
sbag1
(g2
g3
Ntp2295
Rp2296
(dp2297
g7
g114
sg9
g29
sbag1
(g2
g3
Ntp2298
Rp2299
(dp2300
g7
g37
sg9
g29
sbag1
(g2
g3
Ntp2301
Rp2302
(dp2303
g7
g41
sg9
g19
sbag1
(g2
g3
Ntp2304
Rp2305
(dp2306
g7
g18
sg9
g19
sbag1
(g2
g3
Ntp2307
Rp2308
(dp2309
g7
g18
sg9
g19
sbag1
(g2
g3
Ntp2310
Rp2311
(dp2312
g7
g18
sg9
g19
sbag1
(g2
g3
Ntp2313
Rp2314
(dp2315
g7
g18
sg9
g19
sbag1
(g2
g3
Ntp2316
Rp2317
(dp2318
g7
g139
sg9
g29
sbag1
(g2
g3
Ntp2319
Rp2320
(dp2321
g7
g41
sg9
g19
sbag1
(g2
g3
Ntp2322
Rp2323
(dp2324
g7
g139
sg9
g29
sbag1
(g2
g3
Ntp2325
Rp2326
(dp2327
g7
g41
sg9
g19
sbag1
(g2
g3
Ntp2328
Rp2329
(dp2330
g7
S'EOF'
p2331
sg9
g2331
sba.