(lp0
ccopy_reg
_reconstructor
p1
(cscanner.scanner
Token
p2
c__builtin__
object
p3
Ntp4
Rp5
(dp6
S'lexeme'
p7
S'BOF'
p8
sS'type'
p9
g8
sbag1
(g2
g3
Ntp10
Rp11
(dp12
g7
S'package'
p13
sg9
S'Keyword'
p14
sbag1
(g2
g3
Ntp15
Rp16
(dp17
g7
S' '
p18
sg9
S'Whitespace'
p19
sbag1
(g2
g3
Ntp20
Rp21
(dp22
g7
S'java'
p23
sg9
S'Identifier'
p24
sbag1
(g2
g3
Ntp25
Rp26
(dp27
g7
S'.'
p28
sg9
S'Separator'
p29
sbag1
(g2
g3
Ntp30
Rp31
(dp32
g7
S'lang'
p33
sg9
g24
sbag1
(g2
g3
Ntp34
Rp35
(dp36
g7
S';'
p37
sg9
g29
sbag1
(g2
g3
Ntp38
Rp39
(dp40
g7
S'\n'
p41
sg9
g19
sbag1
(g2
g3
Ntp42
Rp43
(dp44
g7
S'public'
p45
sg9
g14
sbag1
(g2
g3
Ntp46
Rp47
(dp48
g7
g18
sg9
g19
sbag1
(g2
g3
Ntp49
Rp50
(dp51
g7
S'final'
p52
sg9
g14
sbag1
(g2
g3
Ntp53
Rp54
(dp55
g7
g18
sg9
g19
sbag1
(g2
g3
Ntp56
Rp57
(dp58
g7
S'class'
p59
sg9
g14
sbag1
(g2
g3
Ntp60
Rp61
(dp62
g7
g18
sg9
g19
sbag1
(g2
g3
Ntp63
Rp64
(dp65
g7
S'Short'
p66
sg9
g24
sbag1
(g2
g3
Ntp67
Rp68
(dp69
g7
g18
sg9
g19
sbag1
(g2
g3
Ntp70
Rp71
(dp72
g7
S'extends'
p73
sg9
g14
sbag1
(g2
g3
Ntp74
Rp75
(dp76
g7
g18
sg9
g19
sbag1
(g2
g3
Ntp77
Rp78
(dp79
g7
S'Number'
p80
sg9
g24
sbag1
(g2
g3
Ntp81
Rp82
(dp83
g7
g18
sg9
g19
sbag1
(g2
g3
Ntp84
Rp85
(dp86
g7
S'{'
p87
sg9
g29
sbag1
(g2
g3
Ntp88
Rp89
(dp90
g7
g41
sg9
g19
sbag1
(g2
g3
Ntp91
Rp92
(dp93
g7
g18
sg9
g19
sbag1
(g2
g3
Ntp94
Rp95
(dp96
g7
g18
sg9
g19
sbag1
(g2
g3
Ntp97
Rp98
(dp99
g7
g18
sg9
g19
sbag1
(g2
g3
Ntp100
Rp101
(dp102
g7
g18
sg9
g19
sbag1
(g2
g3
Ntp103
Rp104
(dp105
g7
S'public'
p106
sg9
g14
sbag1
(g2
g3
Ntp107
Rp108
(dp109
g7
g18
sg9
g19
sbag1
(g2
g3
Ntp110
Rp111
(dp112
g7
S'short'
p113
sg9
g14
sbag1
(g2
g3
Ntp114
Rp115
(dp116
g7
g18
sg9
g19
sbag1
(g2
g3
Ntp117
Rp118
(dp119
g7
S'value'
p120
sg9
g24
sbag1
(g2
g3
Ntp121
Rp122
(dp123
g7
g37
sg9
g29
sbag1
(g2
g3
Ntp124
Rp125
(dp126
g7
g41
sg9
g19
sbag1
(g2
g3
Ntp127
Rp128
(dp129
g7
g18
sg9
g19
sbag1
(g2
g3
Ntp130
Rp131
(dp132
g7
g18
sg9
g19
sbag1
(g2
g3
Ntp133
Rp134
(dp135
g7
g18
sg9
g19
sbag1
(g2
g3
Ntp136
Rp137
(dp138
g7
g18
sg9
g19
sbag1
(g2
g3
Ntp139
Rp140
(dp141
g7
S'public'
p142
sg9
g14
sbag1
(g2
g3
Ntp143
Rp144
(dp145
g7
g18
sg9
g19
sbag1
(g2
g3
Ntp146
Rp147
(dp148
g7
S'Short'
p149
sg9
g24
sbag1
(g2
g3
Ntp150
Rp151
(dp152
g7
S'('
p153
sg9
g29
sbag1
(g2
g3
Ntp154
Rp155
(dp156
g7
S'short'
p157
sg9
g14
sbag1
(g2
g3
Ntp158
Rp159
(dp160
g7
g18
sg9
g19
sbag1
(g2
g3
Ntp161
Rp162
(dp163
g7
S'i'
p164
sg9
g24
sbag1
(g2
g3
Ntp165
Rp166
(dp167
g7
S')'
p168
sg9
g29
sbag1
(g2
g3
Ntp169
Rp170
(dp171
g7
g18
sg9
g19
sbag1
(g2
g3
Ntp172
Rp173
(dp174
g7
g87
sg9
g29
sbag1
(g2
g3
Ntp175
Rp176
(dp177
g7
g41
sg9
g19
sbag1
(g2
g3
Ntp178
Rp179
(dp180
g7
g18
sg9
g19
sbag1
(g2
g3
Ntp181
Rp182
(dp183
g7
g18
sg9
g19
sbag1
(g2
g3
Ntp184
Rp185
(dp186
g7
g18
sg9
g19
sbag1
(g2
g3
Ntp187
Rp188
(dp189
g7
g18
sg9
g19
sbag1
(g2
g3
Ntp190
Rp191
(dp192
g7
g18
sg9
g19
sbag1
(g2
g3
Ntp193
Rp194
(dp195
g7
g18
sg9
g19
sbag1
(g2
g3
Ntp196
Rp197
(dp198
g7
g18
sg9
g19
sbag1
(g2
g3
Ntp199
Rp200
(dp201
g7
g18
sg9
g19
sbag1
(g2
g3
Ntp202
Rp203
(dp204
g7
S'value'
p205
sg9
g24
sbag1
(g2
g3
Ntp206
Rp207
(dp208
g7
g18
sg9
g19
sbag1
(g2
g3
Ntp209
Rp210
(dp211
g7
S'='
p212
sg9
S'Operator'
p213
sbag1
(g2
g3
Ntp214
Rp215
(dp216
g7
g18
sg9
g19
sbag1
(g2
g3
Ntp217
Rp218
(dp219
g7
g164
sg9
g24
sbag1
(g2
g3
Ntp220
Rp221
(dp222
g7
g37
sg9
g29
sbag1
(g2
g3
Ntp223
Rp224
(dp225
g7
g41
sg9
g19
sbag1
(g2
g3
Ntp226
Rp227
(dp228
g7
g18
sg9
g19
sbag1
(g2
g3
Ntp229
Rp230
(dp231
g7
g18
sg9
g19
sbag1
(g2
g3
Ntp232
Rp233
(dp234
g7
g18
sg9
g19
sbag1
(g2
g3
Ntp235
Rp236
(dp237
g7
g18
sg9
g19
sbag1
(g2
g3
Ntp238
Rp239
(dp240
g7
S'}'
p241
sg9
g29
sbag1
(g2
g3
Ntp242
Rp243
(dp244
g7
g41
sg9
g19
sbag1
(g2
g3
Ntp245
Rp246
(dp247
g7
g18
sg9
g19
sbag1
(g2
g3
Ntp248
Rp249
(dp250
g7
g18
sg9
g19
sbag1
(g2
g3
Ntp251
Rp252
(dp253
g7
g18
sg9
g19
sbag1
(g2
g3
Ntp254
Rp255
(dp256
g7
g18
sg9
g19
sbag1
(g2
g3
Ntp257
Rp258
(dp259
g7
S'public'
p260
sg9
g14
sbag1
(g2
g3
Ntp261
Rp262
(dp263
g7
g18
sg9
g19
sbag1
(g2
g3
Ntp264
Rp265
(dp266
g7
S'int'
p267
sg9
g14
sbag1
(g2
g3
Ntp268
Rp269
(dp270
g7
g18
sg9
g19
sbag1
(g2
g3
Ntp271
Rp272
(dp273
g7
S'intValue'
p274
sg9
g24
sbag1
(g2
g3
Ntp275
Rp276
(dp277
g7
g153
sg9
g29
sbag1
(g2
g3
Ntp278
Rp279
(dp280
g7
g168
sg9
g29
sbag1
(g2
g3
Ntp281
Rp282
(dp283
g7
g18
sg9
g19
sbag1
(g2
g3
Ntp284
Rp285
(dp286
g7
g87
sg9
g29
sbag1
(g2
g3
Ntp287
Rp288
(dp289
g7
g41
sg9
g19
sbag1
(g2
g3
Ntp290
Rp291
(dp292
g7
g18
sg9
g19
sbag1
(g2
g3
Ntp293
Rp294
(dp295
g7
g18
sg9
g19
sbag1
(g2
g3
Ntp296
Rp297
(dp298
g7
g18
sg9
g19
sbag1
(g2
g3
Ntp299
Rp300
(dp301
g7
g18
sg9
g19
sbag1
(g2
g3
Ntp302
Rp303
(dp304
g7
g18
sg9
g19
sbag1
(g2
g3
Ntp305
Rp306
(dp307
g7
g18
sg9
g19
sbag1
(g2
g3
Ntp308
Rp309
(dp310
g7
g18
sg9
g19
sbag1
(g2
g3
Ntp311
Rp312
(dp313
g7
g18
sg9
g19
sbag1
(g2
g3
Ntp314
Rp315
(dp316
g7
S'return'
p317
sg9
g14
sbag1
(g2
g3
Ntp318
Rp319
(dp320
g7
g18
sg9
g19
sbag1
(g2
g3
Ntp321
Rp322
(dp323
g7
g153
sg9
g29
sbag1
(g2
g3
Ntp324
Rp325
(dp326
g7
S'int'
p327
sg9
g14
sbag1
(g2
g3
Ntp328
Rp329
(dp330
g7
g168
sg9
g29
sbag1
(g2
g3
Ntp331
Rp332
(dp333
g7
g18
sg9
g19
sbag1
(g2
g3
Ntp334
Rp335
(dp336
g7
S'value'
p337
sg9
g24
sbag1
(g2
g3
Ntp338
Rp339
(dp340
g7
g37
sg9
g29
sbag1
(g2
g3
Ntp341
Rp342
(dp343
g7
g41
sg9
g19
sbag1
(g2
g3
Ntp344
Rp345
(dp346
g7
g18
sg9
g19
sbag1
(g2
g3
Ntp347
Rp348
(dp349
g7
g18
sg9
g19
sbag1
(g2
g3
Ntp350
Rp351
(dp352
g7
g18
sg9
g19
sbag1
(g2
g3
Ntp353
Rp354
(dp355
g7
g18
sg9
g19
sbag1
(g2
g3
Ntp356
Rp357
(dp358
g7
g241
sg9
g29
sbag1
(g2
g3
Ntp359
Rp360
(dp361
g7
g41
sg9
g19
sbag1
(g2
g3
Ntp362
Rp363
(dp364
g7
g18
sg9
g19
sbag1
(g2
g3
Ntp365
Rp366
(dp367
g7
g18
sg9
g19
sbag1
(g2
g3
Ntp368
Rp369
(dp370
g7
g18
sg9
g19
sbag1
(g2
g3
Ntp371
Rp372
(dp373
g7
g18
sg9
g19
sbag1
(g2
g3
Ntp374
Rp375
(dp376
g7
S'public'
p377
sg9
g14
sbag1
(g2
g3
Ntp378
Rp379
(dp380
g7
g18
sg9
g19
sbag1
(g2
g3
Ntp381
Rp382
(dp383
g7
S'Short'
p384
sg9
g24
sbag1
(g2
g3
Ntp385
Rp386
(dp387
g7
g153
sg9
g29
sbag1
(g2
g3
Ntp388
Rp389
(dp390
g7
g168
sg9
g29
sbag1
(g2
g3
Ntp391
Rp392
(dp393
g7
g18
sg9
g19
sbag1
(g2
g3
Ntp394
Rp395
(dp396
g7
g87
sg9
g29
sbag1
(g2
g3
Ntp397
Rp398
(dp399
g7
g41
sg9
g19
sbag1
(g2
g3
Ntp400
Rp401
(dp402
g7
g18
sg9
g19
sbag1
(g2
g3
Ntp403
Rp404
(dp405
g7
g18
sg9
g19
sbag1
(g2
g3
Ntp406
Rp407
(dp408
g7
g18
sg9
g19
sbag1
(g2
g3
Ntp409
Rp410
(dp411
g7
g18
sg9
g19
sbag1
(g2
g3
Ntp412
Rp413
(dp414
g7
g241
sg9
g29
sbag1
(g2
g3
Ntp415
Rp416
(dp417
g7
g41
sg9
g19
sbag1
(g2
g3
Ntp418
Rp419
(dp420
g7
g241
sg9
g29
sbag1
(g2
g3
Ntp421
Rp422
(dp423
g7
g41
sg9
g19
sbag1
(g2
g3
Ntp424
Rp425
(dp426
g7
S'EOF'
p427
sg9
g427
sba.