(lp0
ccopy_reg
_reconstructor
p1
(cscanner.scanner
Token
p2
c__builtin__
object
p3
Ntp4
Rp5
(dp6
S'lexeme'
p7
S'BOF'
p8
sS'type'
p9
g8
sbag1
(g2
g3
Ntp10
Rp11
(dp12
g7
S'package'
p13
sg9
S'Keyword'
p14
sbag1
(g2
g3
Ntp15
Rp16
(dp17
g7
S' '
p18
sg9
S'Whitespace'
p19
sbag1
(g2
g3
Ntp20
Rp21
(dp22
g7
S'java'
p23
sg9
S'Identifier'
p24
sbag1
(g2
g3
Ntp25
Rp26
(dp27
g7
S'.'
p28
sg9
S'Separator'
p29
sbag1
(g2
g3
Ntp30
Rp31
(dp32
g7
S'lang'
p33
sg9
g24
sbag1
(g2
g3
Ntp34
Rp35
(dp36
g7
S';'
p37
sg9
g29
sbag1
(g2
g3
Ntp38
Rp39
(dp40
g7
S'\n'
p41
sg9
g19
sbag1
(g2
g3
Ntp42
Rp43
(dp44
g7
S'import'
p45
sg9
g14
sbag1
(g2
g3
Ntp46
Rp47
(dp48
g7
g18
sg9
g19
sbag1
(g2
g3
Ntp49
Rp50
(dp51
g7
S'java'
p52
sg9
g24
sbag1
(g2
g3
Ntp53
Rp54
(dp55
g7
g28
sg9
g29
sbag1
(g2
g3
Ntp56
Rp57
(dp58
g7
S'util'
p59
sg9
g24
sbag1
(g2
g3
Ntp60
Rp61
(dp62
g7
g28
sg9
g29
sbag1
(g2
g3
Ntp63
Rp64
(dp65
g7
S'Arrays'
p66
sg9
g24
sbag1
(g2
g3
Ntp67
Rp68
(dp69
g7
g37
sg9
g29
sbag1
(g2
g3
Ntp70
Rp71
(dp72
g7
g41
sg9
g19
sbag1
(g2
g3
Ntp73
Rp74
(dp75
g7
g41
sg9
g19
sbag1
(g2
g3
Ntp76
Rp77
(dp78
g7
S'public'
p79
sg9
g14
sbag1
(g2
g3
Ntp80
Rp81
(dp82
g7
g18
sg9
g19
sbag1
(g2
g3
Ntp83
Rp84
(dp85
g7
S'class'
p86
sg9
g14
sbag1
(g2
g3
Ntp87
Rp88
(dp89
g7
g18
sg9
g19
sbag1
(g2
g3
Ntp90
Rp91
(dp92
g7
S'String'
p93
sg9
g24
sbag1
(g2
g3
Ntp94
Rp95
(dp96
g7
g18
sg9
g19
sbag1
(g2
g3
Ntp97
Rp98
(dp99
g7
S'{'
p100
sg9
g29
sbag1
(g2
g3
Ntp101
Rp102
(dp103
g7
g41
sg9
g19
sbag1
(g2
g3
Ntp104
Rp105
(dp106
g7
g18
sg9
g19
sbag1
(g2
g3
Ntp107
Rp108
(dp109
g7
g18
sg9
g19
sbag1
(g2
g3
Ntp110
Rp111
(dp112
g7
g18
sg9
g19
sbag1
(g2
g3
Ntp113
Rp114
(dp115
g7
g18
sg9
g19
sbag1
(g2
g3
Ntp116
Rp117
(dp118
g7
S'public'
p119
sg9
g14
sbag1
(g2
g3
Ntp120
Rp121
(dp122
g7
g18
sg9
g19
sbag1
(g2
g3
Ntp123
Rp124
(dp125
g7
S'char'
p126
sg9
g14
sbag1
(g2
g3
Ntp127
Rp128
(dp129
g7
S'['
p130
sg9
g29
sbag1
(g2
g3
Ntp131
Rp132
(dp133
g7
S']'
p134
sg9
g29
sbag1
(g2
g3
Ntp135
Rp136
(dp137
g7
g18
sg9
g19
sbag1
(g2
g3
Ntp138
Rp139
(dp140
g7
S'chars'
p141
sg9
g24
sbag1
(g2
g3
Ntp142
Rp143
(dp144
g7
g37
sg9
g29
sbag1
(g2
g3
Ntp145
Rp146
(dp147
g7
g41
sg9
g19
sbag1
(g2
g3
Ntp148
Rp149
(dp150
g7
g18
sg9
g19
sbag1
(g2
g3
Ntp151
Rp152
(dp153
g7
g18
sg9
g19
sbag1
(g2
g3
Ntp154
Rp155
(dp156
g7
g18
sg9
g19
sbag1
(g2
g3
Ntp157
Rp158
(dp159
g7
g18
sg9
g19
sbag1
(g2
g3
Ntp160
Rp161
(dp162
g7
S'public'
p163
sg9
g14
sbag1
(g2
g3
Ntp164
Rp165
(dp166
g7
g18
sg9
g19
sbag1
(g2
g3
Ntp167
Rp168
(dp169
g7
S'int'
p170
sg9
g14
sbag1
(g2
g3
Ntp171
Rp172
(dp173
g7
g18
sg9
g19
sbag1
(g2
g3
Ntp174
Rp175
(dp176
g7
S'length'
p177
sg9
g24
sbag1
(g2
g3
Ntp178
Rp179
(dp180
g7
S'('
p181
sg9
g29
sbag1
(g2
g3
Ntp182
Rp183
(dp184
g7
S')'
p185
sg9
g29
sbag1
(g2
g3
Ntp186
Rp187
(dp188
g7
g18
sg9
g19
sbag1
(g2
g3
Ntp189
Rp190
(dp191
g7
g100
sg9
g29
sbag1
(g2
g3
Ntp192
Rp193
(dp194
g7
g41
sg9
g19
sbag1
(g2
g3
Ntp195
Rp196
(dp197
g7
g18
sg9
g19
sbag1
(g2
g3
Ntp198
Rp199
(dp200
g7
g18
sg9
g19
sbag1
(g2
g3
Ntp201
Rp202
(dp203
g7
g18
sg9
g19
sbag1
(g2
g3
Ntp204
Rp205
(dp206
g7
g18
sg9
g19
sbag1
(g2
g3
Ntp207
Rp208
(dp209
g7
g18
sg9
g19
sbag1
(g2
g3
Ntp210
Rp211
(dp212
g7
g18
sg9
g19
sbag1
(g2
g3
Ntp213
Rp214
(dp215
g7
g18
sg9
g19
sbag1
(g2
g3
Ntp216
Rp217
(dp218
g7
g18
sg9
g19
sbag1
(g2
g3
Ntp219
Rp220
(dp221
g7
S'return'
p222
sg9
g14
sbag1
(g2
g3
Ntp223
Rp224
(dp225
g7
g18
sg9
g19
sbag1
(g2
g3
Ntp226
Rp227
(dp228
g7
S'chars'
p229
sg9
g24
sbag1
(g2
g3
Ntp230
Rp231
(dp232
g7
g28
sg9
g29
sbag1
(g2
g3
Ntp233
Rp234
(dp235
g7
S'length'
p236
sg9
g24
sbag1
(g2
g3
Ntp237
Rp238
(dp239
g7
g37
sg9
g29
sbag1
(g2
g3
Ntp240
Rp241
(dp242
g7
g41
sg9
g19
sbag1
(g2
g3
Ntp243
Rp244
(dp245
g7
g18
sg9
g19
sbag1
(g2
g3
Ntp246
Rp247
(dp248
g7
g18
sg9
g19
sbag1
(g2
g3
Ntp249
Rp250
(dp251
g7
g18
sg9
g19
sbag1
(g2
g3
Ntp252
Rp253
(dp254
g7
g18
sg9
g19
sbag1
(g2
g3
Ntp255
Rp256
(dp257
g7
S'}'
p258
sg9
g29
sbag1
(g2
g3
Ntp259
Rp260
(dp261
g7
g41
sg9
g19
sbag1
(g2
g3
Ntp262
Rp263
(dp264
g7
g18
sg9
g19
sbag1
(g2
g3
Ntp265
Rp266
(dp267
g7
g18
sg9
g19
sbag1
(g2
g3
Ntp268
Rp269
(dp270
g7
g18
sg9
g19
sbag1
(g2
g3
Ntp271
Rp272
(dp273
g7
g18
sg9
g19
sbag1
(g2
g3
Ntp274
Rp275
(dp276
g7
S'public'
p277
sg9
g14
sbag1
(g2
g3
Ntp278
Rp279
(dp280
g7
g18
sg9
g19
sbag1
(g2
g3
Ntp281
Rp282
(dp283
g7
S'char'
p284
sg9
g14
sbag1
(g2
g3
Ntp285
Rp286
(dp287
g7
g18
sg9
g19
sbag1
(g2
g3
Ntp288
Rp289
(dp290
g7
S'charAt'
p291
sg9
g24
sbag1
(g2
g3
Ntp292
Rp293
(dp294
g7
g181
sg9
g29
sbag1
(g2
g3
Ntp295
Rp296
(dp297
g7
S'int'
p298
sg9
g14
sbag1
(g2
g3
Ntp299
Rp300
(dp301
g7
g18
sg9
g19
sbag1
(g2
g3
Ntp302
Rp303
(dp304
g7
S'i'
p305
sg9
g24
sbag1
(g2
g3
Ntp306
Rp307
(dp308
g7
g185
sg9
g29
sbag1
(g2
g3
Ntp309
Rp310
(dp311
g7
g18
sg9
g19
sbag1
(g2
g3
Ntp312
Rp313
(dp314
g7
g100
sg9
g29
sbag1
(g2
g3
Ntp315
Rp316
(dp317
g7
g41
sg9
g19
sbag1
(g2
g3
Ntp318
Rp319
(dp320
g7
g18
sg9
g19
sbag1
(g2
g3
Ntp321
Rp322
(dp323
g7
g18
sg9
g19
sbag1
(g2
g3
Ntp324
Rp325
(dp326
g7
g18
sg9
g19
sbag1
(g2
g3
Ntp327
Rp328
(dp329
g7
g18
sg9
g19
sbag1
(g2
g3
Ntp330
Rp331
(dp332
g7
g18
sg9
g19
sbag1
(g2
g3
Ntp333
Rp334
(dp335
g7
g18
sg9
g19
sbag1
(g2
g3
Ntp336
Rp337
(dp338
g7
g18
sg9
g19
sbag1
(g2
g3
Ntp339
Rp340
(dp341
g7
g18
sg9
g19
sbag1
(g2
g3
Ntp342
Rp343
(dp344
g7
S'return'
p345
sg9
g14
sbag1
(g2
g3
Ntp346
Rp347
(dp348
g7
g18
sg9
g19
sbag1
(g2
g3
Ntp349
Rp350
(dp351
g7
S'chars'
p352
sg9
g24
sbag1
(g2
g3
Ntp353
Rp354
(dp355
g7
g130
sg9
g29
sbag1
(g2
g3
Ntp356
Rp357
(dp358
g7
g305
sg9
g24
sbag1
(g2
g3
Ntp359
Rp360
(dp361
g7
g134
sg9
g29
sbag1
(g2
g3
Ntp362
Rp363
(dp364
g7
g37
sg9
g29
sbag1
(g2
g3
Ntp365
Rp366
(dp367
g7
g41
sg9
g19
sbag1
(g2
g3
Ntp368
Rp369
(dp370
g7
g18
sg9
g19
sbag1
(g2
g3
Ntp371
Rp372
(dp373
g7
g18
sg9
g19
sbag1
(g2
g3
Ntp374
Rp375
(dp376
g7
g18
sg9
g19
sbag1
(g2
g3
Ntp377
Rp378
(dp379
g7
g18
sg9
g19
sbag1
(g2
g3
Ntp380
Rp381
(dp382
g7
g258
sg9
g29
sbag1
(g2
g3
Ntp383
Rp384
(dp385
g7
g41
sg9
g19
sbag1
(g2
g3
Ntp386
Rp387
(dp388
g7
g18
sg9
g19
sbag1
(g2
g3
Ntp389
Rp390
(dp391
g7
g18
sg9
g19
sbag1
(g2
g3
Ntp392
Rp393
(dp394
g7
g18
sg9
g19
sbag1
(g2
g3
Ntp395
Rp396
(dp397
g7
g18
sg9
g19
sbag1
(g2
g3
Ntp398
Rp399
(dp400
g7
S'public'
p401
sg9
g14
sbag1
(g2
g3
Ntp402
Rp403
(dp404
g7
g18
sg9
g19
sbag1
(g2
g3
Ntp405
Rp406
(dp407
g7
S'String'
p408
sg9
g24
sbag1
(g2
g3
Ntp409
Rp410
(dp411
g7
g181
sg9
g29
sbag1
(g2
g3
Ntp412
Rp413
(dp414
g7
g185
sg9
g29
sbag1
(g2
g3
Ntp415
Rp416
(dp417
g7
g18
sg9
g19
sbag1
(g2
g3
Ntp418
Rp419
(dp420
g7
g100
sg9
g29
sbag1
(g2
g3
Ntp421
Rp422
(dp423
g7
g41
sg9
g19
sbag1
(g2
g3
Ntp424
Rp425
(dp426
g7
g18
sg9
g19
sbag1
(g2
g3
Ntp427
Rp428
(dp429
g7
g18
sg9
g19
sbag1
(g2
g3
Ntp430
Rp431
(dp432
g7
g18
sg9
g19
sbag1
(g2
g3
Ntp433
Rp434
(dp435
g7
g18
sg9
g19
sbag1
(g2
g3
Ntp436
Rp437
(dp438
g7
g18
sg9
g19
sbag1
(g2
g3
Ntp439
Rp440
(dp441
g7
g18
sg9
g19
sbag1
(g2
g3
Ntp442
Rp443
(dp444
g7
g18
sg9
g19
sbag1
(g2
g3
Ntp445
Rp446
(dp447
g7
g18
sg9
g19
sbag1
(g2
g3
Ntp448
Rp449
(dp450
g7
S'chars'
p451
sg9
g24
sbag1
(g2
g3
Ntp452
Rp453
(dp454
g7
g18
sg9
g19
sbag1
(g2
g3
Ntp455
Rp456
(dp457
g7
S'='
p458
sg9
S'Operator'
p459
sbag1
(g2
g3
Ntp460
Rp461
(dp462
g7
g18
sg9
g19
sbag1
(g2
g3
Ntp463
Rp464
(dp465
g7
S'new'
p466
sg9
g14
sbag1
(g2
g3
Ntp467
Rp468
(dp469
g7
g18
sg9
g19
sbag1
(g2
g3
Ntp470
Rp471
(dp472
g7
S'char'
p473
sg9
g14
sbag1
(g2
g3
Ntp474
Rp475
(dp476
g7
g130
sg9
g29
sbag1
(g2
g3
Ntp477
Rp478
(dp479
g7
S'0'
p480
sg9
S'Literal'
p481
sbag1
(g2
g3
Ntp482
Rp483
(dp484
g7
g134
sg9
g29
sbag1
(g2
g3
Ntp485
Rp486
(dp487
g7
g37
sg9
g29
sbag1
(g2
g3
Ntp488
Rp489
(dp490
g7
g41
sg9
g19
sbag1
(g2
g3
Ntp491
Rp492
(dp493
g7
g18
sg9
g19
sbag1
(g2
g3
Ntp494
Rp495
(dp496
g7
g18
sg9
g19
sbag1
(g2
g3
Ntp497
Rp498
(dp499
g7
g18
sg9
g19
sbag1
(g2
g3
Ntp500
Rp501
(dp502
g7
g18
sg9
g19
sbag1
(g2
g3
Ntp503
Rp504
(dp505
g7
g258
sg9
g29
sbag1
(g2
g3
Ntp506
Rp507
(dp508
g7
g41
sg9
g19
sbag1
(g2
g3
Ntp509
Rp510
(dp511
g7
g18
sg9
g19
sbag1
(g2
g3
Ntp512
Rp513
(dp514
g7
g18
sg9
g19
sbag1
(g2
g3
Ntp515
Rp516
(dp517
g7
g18
sg9
g19
sbag1
(g2
g3
Ntp518
Rp519
(dp520
g7
g18
sg9
g19
sbag1
(g2
g3
Ntp521
Rp522
(dp523
g7
S'public'
p524
sg9
g14
sbag1
(g2
g3
Ntp525
Rp526
(dp527
g7
g18
sg9
g19
sbag1
(g2
g3
Ntp528
Rp529
(dp530
g7
S'String'
p531
sg9
g24
sbag1
(g2
g3
Ntp532
Rp533
(dp534
g7
g181
sg9
g29
sbag1
(g2
g3
Ntp535
Rp536
(dp537
g7
S'char'
p538
sg9
g14
sbag1
(g2
g3
Ntp539
Rp540
(dp541
g7
g130
sg9
g29
sbag1
(g2
g3
Ntp542
Rp543
(dp544
g7
g134
sg9
g29
sbag1
(g2
g3
Ntp545
Rp546
(dp547
g7
g18
sg9
g19
sbag1
(g2
g3
Ntp548
Rp549
(dp550
g7
S'chars'
p551
sg9
g24
sbag1
(g2
g3
Ntp552
Rp553
(dp554
g7
g185
sg9
g29
sbag1
(g2
g3
Ntp555
Rp556
(dp557
g7
g18
sg9
g19
sbag1
(g2
g3
Ntp558
Rp559
(dp560
g7
g100
sg9
g29
sbag1
(g2
g3
Ntp561
Rp562
(dp563
g7
g41
sg9
g19
sbag1
(g2
g3
Ntp564
Rp565
(dp566
g7
g18
sg9
g19
sbag1
(g2
g3
Ntp567
Rp568
(dp569
g7
g18
sg9
g19
sbag1
(g2
g3
Ntp570
Rp571
(dp572
g7
g18
sg9
g19
sbag1
(g2
g3
Ntp573
Rp574
(dp575
g7
g18
sg9
g19
sbag1
(g2
g3
Ntp576
Rp577
(dp578
g7
g18
sg9
g19
sbag1
(g2
g3
Ntp579
Rp580
(dp581
g7
g18
sg9
g19
sbag1
(g2
g3
Ntp582
Rp583
(dp584
g7
g18
sg9
g19
sbag1
(g2
g3
Ntp585
Rp586
(dp587
g7
g18
sg9
g19
sbag1
(g2
g3
Ntp588
Rp589
(dp590
g7
S'this'
p591
sg9
g14
sbag1
(g2
g3
Ntp592
Rp593
(dp594
g7
g28
sg9
g29
sbag1
(g2
g3
Ntp595
Rp596
(dp597
g7
S'chars'
p598
sg9
g24
sbag1
(g2
g3
Ntp599
Rp600
(dp601
g7
g18
sg9
g19
sbag1
(g2
g3
Ntp602
Rp603
(dp604
g7
g458
sg9
g459
sbag1
(g2
g3
Ntp605
Rp606
(dp607
g7
g18
sg9
g19
sbag1
(g2
g3
Ntp608
Rp609
(dp610
g7
S'new'
p611
sg9
g14
sbag1
(g2
g3
Ntp612
Rp613
(dp614
g7
g18
sg9
g19
sbag1
(g2
g3
Ntp615
Rp616
(dp617
g7
S'char'
p618
sg9
g14
sbag1
(g2
g3
Ntp619
Rp620
(dp621
g7
g130
sg9
g29
sbag1
(g2
g3
Ntp622
Rp623
(dp624
g7
S'chars'
p625
sg9
g24
sbag1
(g2
g3
Ntp626
Rp627
(dp628
g7
g28
sg9
g29
sbag1
(g2
g3
Ntp629
Rp630
(dp631
g7
S'length'
p632
sg9
g24
sbag1
(g2
g3
Ntp633
Rp634
(dp635
g7
g134
sg9
g29
sbag1
(g2
g3
Ntp636
Rp637
(dp638
g7
g37
sg9
g29
sbag1
(g2
g3
Ntp639
Rp640
(dp641
g7
g41
sg9
g19
sbag1
(g2
g3
Ntp642
Rp643
(dp644
g7
g18
sg9
g19
sbag1
(g2
g3
Ntp645
Rp646
(dp647
g7
g18
sg9
g19
sbag1
(g2
g3
Ntp648
Rp649
(dp650
g7
g18
sg9
g19
sbag1
(g2
g3
Ntp651
Rp652
(dp653
g7
g18
sg9
g19
sbag1
(g2
g3
Ntp654
Rp655
(dp656
g7
g18
sg9
g19
sbag1
(g2
g3
Ntp657
Rp658
(dp659
g7
g18
sg9
g19
sbag1
(g2
g3
Ntp660
Rp661
(dp662
g7
g18
sg9
g19
sbag1
(g2
g3
Ntp663
Rp664
(dp665
g7
g18
sg9
g19
sbag1
(g2
g3
Ntp666
Rp667
(dp668
g7
S'for'
p669
sg9
g14
sbag1
(g2
g3
Ntp670
Rp671
(dp672
g7
g181
sg9
g29
sbag1
(g2
g3
Ntp673
Rp674
(dp675
g7
S'int'
p676
sg9
g14
sbag1
(g2
g3
Ntp677
Rp678
(dp679
g7
g18
sg9
g19
sbag1
(g2
g3
Ntp680
Rp681
(dp682
g7
g305
sg9
g24
sbag1
(g2
g3
Ntp683
Rp684
(dp685
g7
g18
sg9
g19
sbag1
(g2
g3
Ntp686
Rp687
(dp688
g7
g458
sg9
g459
sbag1
(g2
g3
Ntp689
Rp690
(dp691
g7
g18
sg9
g19
sbag1
(g2
g3
Ntp692
Rp693
(dp694
g7
g480
sg9
g481
sbag1
(g2
g3
Ntp695
Rp696
(dp697
g7
g37
sg9
g29
sbag1
(g2
g3
Ntp698
Rp699
(dp700
g7
g18
sg9
g19
sbag1
(g2
g3
Ntp701
Rp702
(dp703
g7
g305
sg9
g24
sbag1
(g2
g3
Ntp704
Rp705
(dp706
g7
g18
sg9
g19
sbag1
(g2
g3
Ntp707
Rp708
(dp709
g7
S'<'
p710
sg9
g459
sbag1
(g2
g3
Ntp711
Rp712
(dp713
g7
g18
sg9
g19
sbag1
(g2
g3
Ntp714
Rp715
(dp716
g7
S'chars'
p717
sg9
g24
sbag1
(g2
g3
Ntp718
Rp719
(dp720
g7
g28
sg9
g29
sbag1
(g2
g3
Ntp721
Rp722
(dp723
g7
S'length'
p724
sg9
g24
sbag1
(g2
g3
Ntp725
Rp726
(dp727
g7
g37
sg9
g29
sbag1
(g2
g3
Ntp728
Rp729
(dp730
g7
g18
sg9
g19
sbag1
(g2
g3
Ntp731
Rp732
(dp733
g7
g305
sg9
g24
sbag1
(g2
g3
Ntp734
Rp735
(dp736
g7
g18
sg9
g19
sbag1
(g2
g3
Ntp737
Rp738
(dp739
g7
g458
sg9
g459
sbag1
(g2
g3
Ntp740
Rp741
(dp742
g7
g18
sg9
g19
sbag1
(g2
g3
Ntp743
Rp744
(dp745
g7
g305
sg9
g24
sbag1
(g2
g3
Ntp746
Rp747
(dp748
g7
g18
sg9
g19
sbag1
(g2
g3
Ntp749
Rp750
(dp751
g7
S'+'
p752
sg9
g459
sbag1
(g2
g3
Ntp753
Rp754
(dp755
g7
g18
sg9
g19
sbag1
(g2
g3
Ntp756
Rp757
(dp758
g7
S'1'
p759
sg9
g481
sbag1
(g2
g3
Ntp760
Rp761
(dp762
g7
g185
sg9
g29
sbag1
(g2
g3
Ntp763
Rp764
(dp765
g7
g18
sg9
g19
sbag1
(g2
g3
Ntp766
Rp767
(dp768
g7
S'this'
p769
sg9
g14
sbag1
(g2
g3
Ntp770
Rp771
(dp772
g7
g28
sg9
g29
sbag1
(g2
g3
Ntp773
Rp774
(dp775
g7
S'chars'
p776
sg9
g24
sbag1
(g2
g3
Ntp777
Rp778
(dp779
g7
g130
sg9
g29
sbag1
(g2
g3
Ntp780
Rp781
(dp782
g7
g305
sg9
g24
sbag1
(g2
g3
Ntp783
Rp784
(dp785
g7
g134
sg9
g29
sbag1
(g2
g3
Ntp786
Rp787
(dp788
g7
g18
sg9
g19
sbag1
(g2
g3
Ntp789
Rp790
(dp791
g7
g458
sg9
g459
sbag1
(g2
g3
Ntp792
Rp793
(dp794
g7
g18
sg9
g19
sbag1
(g2
g3
Ntp795
Rp796
(dp797
g7
S'chars'
p798
sg9
g24
sbag1
(g2
g3
Ntp799
Rp800
(dp801
g7
g130
sg9
g29
sbag1
(g2
g3
Ntp802
Rp803
(dp804
g7
g305
sg9
g24
sbag1
(g2
g3
Ntp805
Rp806
(dp807
g7
g134
sg9
g29
sbag1
(g2
g3
Ntp808
Rp809
(dp810
g7
g37
sg9
g29
sbag1
(g2
g3
Ntp811
Rp812
(dp813
g7
g41
sg9
g19
sbag1
(g2
g3
Ntp814
Rp815
(dp816
g7
g18
sg9
g19
sbag1
(g2
g3
Ntp817
Rp818
(dp819
g7
g18
sg9
g19
sbag1
(g2
g3
Ntp820
Rp821
(dp822
g7
g18
sg9
g19
sbag1
(g2
g3
Ntp823
Rp824
(dp825
g7
g18
sg9
g19
sbag1
(g2
g3
Ntp826
Rp827
(dp828
g7
g258
sg9
g29
sbag1
(g2
g3
Ntp829
Rp830
(dp831
g7
g41
sg9
g19
sbag1
(g2
g3
Ntp832
Rp833
(dp834
g7
g18
sg9
g19
sbag1
(g2
g3
Ntp835
Rp836
(dp837
g7
g18
sg9
g19
sbag1
(g2
g3
Ntp838
Rp839
(dp840
g7
g18
sg9
g19
sbag1
(g2
g3
Ntp841
Rp842
(dp843
g7
g18
sg9
g19
sbag1
(g2
g3
Ntp844
Rp845
(dp846
g7
S'public'
p847
sg9
g14
sbag1
(g2
g3
Ntp848
Rp849
(dp850
g7
g18
sg9
g19
sbag1
(g2
g3
Ntp851
Rp852
(dp853
g7
S'String'
p854
sg9
g24
sbag1
(g2
g3
Ntp855
Rp856
(dp857
g7
g18
sg9
g19
sbag1
(g2
g3
Ntp858
Rp859
(dp860
g7
S'concat'
p861
sg9
g24
sbag1
(g2
g3
Ntp862
Rp863
(dp864
g7
g181
sg9
g29
sbag1
(g2
g3
Ntp865
Rp866
(dp867
g7
S'String'
p868
sg9
g24
sbag1
(g2
g3
Ntp869
Rp870
(dp871
g7
g18
sg9
g19
sbag1
(g2
g3
Ntp872
Rp873
(dp874
g7
S's2'
p875
sg9
g24
sbag1
(g2
g3
Ntp876
Rp877
(dp878
g7
g185
sg9
g29
sbag1
(g2
g3
Ntp879
Rp880
(dp881
g7
g18
sg9
g19
sbag1
(g2
g3
Ntp882
Rp883
(dp884
g7
g100
sg9
g29
sbag1
(g2
g3
Ntp885
Rp886
(dp887
g7
g41
sg9
g19
sbag1
(g2
g3
Ntp888
Rp889
(dp890
g7
g18
sg9
g19
sbag1
(g2
g3
Ntp891
Rp892
(dp893
g7
g18
sg9
g19
sbag1
(g2
g3
Ntp894
Rp895
(dp896
g7
g18
sg9
g19
sbag1
(g2
g3
Ntp897
Rp898
(dp899
g7
g18
sg9
g19
sbag1
(g2
g3
Ntp900
Rp901
(dp902
g7
g18
sg9
g19
sbag1
(g2
g3
Ntp903
Rp904
(dp905
g7
g18
sg9
g19
sbag1
(g2
g3
Ntp906
Rp907
(dp908
g7
g18
sg9
g19
sbag1
(g2
g3
Ntp909
Rp910
(dp911
g7
g18
sg9
g19
sbag1
(g2
g3
Ntp912
Rp913
(dp914
g7
S'int'
p915
sg9
g14
sbag1
(g2
g3
Ntp916
Rp917
(dp918
g7
g18
sg9
g19
sbag1
(g2
g3
Ntp919
Rp920
(dp921
g7
g305
sg9
g24
sbag1
(g2
g3
Ntp922
Rp923
(dp924
g7
g18
sg9
g19
sbag1
(g2
g3
Ntp925
Rp926
(dp927
g7
g458
sg9
g459
sbag1
(g2
g3
Ntp928
Rp929
(dp930
g7
g18
sg9
g19
sbag1
(g2
g3
Ntp931
Rp932
(dp933
g7
g480
sg9
g481
sbag1
(g2
g3
Ntp934
Rp935
(dp936
g7
g37
sg9
g29
sbag1
(g2
g3
Ntp937
Rp938
(dp939
g7
g41
sg9
g19
sbag1
(g2
g3
Ntp940
Rp941
(dp942
g7
g18
sg9
g19
sbag1
(g2
g3
Ntp943
Rp944
(dp945
g7
g18
sg9
g19
sbag1
(g2
g3
Ntp946
Rp947
(dp948
g7
g18
sg9
g19
sbag1
(g2
g3
Ntp949
Rp950
(dp951
g7
g18
sg9
g19
sbag1
(g2
g3
Ntp952
Rp953
(dp954
g7
g18
sg9
g19
sbag1
(g2
g3
Ntp955
Rp956
(dp957
g7
g18
sg9
g19
sbag1
(g2
g3
Ntp958
Rp959
(dp960
g7
g18
sg9
g19
sbag1
(g2
g3
Ntp961
Rp962
(dp963
g7
g18
sg9
g19
sbag1
(g2
g3
Ntp964
Rp965
(dp966
g7
S'char'
p967
sg9
g14
sbag1
(g2
g3
Ntp968
Rp969
(dp970
g7
g130
sg9
g29
sbag1
(g2
g3
Ntp971
Rp972
(dp973
g7
g134
sg9
g29
sbag1
(g2
g3
Ntp974
Rp975
(dp976
g7
g18
sg9
g19
sbag1
(g2
g3
Ntp977
Rp978
(dp979
g7
S'newchars'
p980
sg9
g24
sbag1
(g2
g3
Ntp981
Rp982
(dp983
g7
g18
sg9
g19
sbag1
(g2
g3
Ntp984
Rp985
(dp986
g7
g458
sg9
g459
sbag1
(g2
g3
Ntp987
Rp988
(dp989
g7
g18
sg9
g19
sbag1
(g2
g3
Ntp990
Rp991
(dp992
g7
S'new'
p993
sg9
g14
sbag1
(g2
g3
Ntp994
Rp995
(dp996
g7
g18
sg9
g19
sbag1
(g2
g3
Ntp997
Rp998
(dp999
g7
S'char'
p1000
sg9
g14
sbag1
(g2
g3
Ntp1001
Rp1002
(dp1003
g7
g130
sg9
g29
sbag1
(g2
g3
Ntp1004
Rp1005
(dp1006
g7
S'length'
p1007
sg9
g24
sbag1
(g2
g3
Ntp1008
Rp1009
(dp1010
g7
g181
sg9
g29
sbag1
(g2
g3
Ntp1011
Rp1012
(dp1013
g7
g185
sg9
g29
sbag1
(g2
g3
Ntp1014
Rp1015
(dp1016
g7
g18
sg9
g19
sbag1
(g2
g3
Ntp1017
Rp1018
(dp1019
g7
g752
sg9
g459
sbag1
(g2
g3
Ntp1020
Rp1021
(dp1022
g7
g18
sg9
g19
sbag1
(g2
g3
Ntp1023
Rp1024
(dp1025
g7
S's2'
p1026
sg9
g24
sbag1
(g2
g3
Ntp1027
Rp1028
(dp1029
g7
g28
sg9
g29
sbag1
(g2
g3
Ntp1030
Rp1031
(dp1032
g7
S'length'
p1033
sg9
g24
sbag1
(g2
g3
Ntp1034
Rp1035
(dp1036
g7
g181
sg9
g29
sbag1
(g2
g3
Ntp1037
Rp1038
(dp1039
g7
g185
sg9
g29
sbag1
(g2
g3
Ntp1040
Rp1041
(dp1042
g7
g134
sg9
g29
sbag1
(g2
g3
Ntp1043
Rp1044
(dp1045
g7
g37
sg9
g29
sbag1
(g2
g3
Ntp1046
Rp1047
(dp1048
g7
g41
sg9
g19
sbag1
(g2
g3
Ntp1049
Rp1050
(dp1051
g7
g18
sg9
g19
sbag1
(g2
g3
Ntp1052
Rp1053
(dp1054
g7
g18
sg9
g19
sbag1
(g2
g3
Ntp1055
Rp1056
(dp1057
g7
g18
sg9
g19
sbag1
(g2
g3
Ntp1058
Rp1059
(dp1060
g7
g18
sg9
g19
sbag1
(g2
g3
Ntp1061
Rp1062
(dp1063
g7
g18
sg9
g19
sbag1
(g2
g3
Ntp1064
Rp1065
(dp1066
g7
g18
sg9
g19
sbag1
(g2
g3
Ntp1067
Rp1068
(dp1069
g7
g18
sg9
g19
sbag1
(g2
g3
Ntp1070
Rp1071
(dp1072
g7
g18
sg9
g19
sbag1
(g2
g3
Ntp1073
Rp1074
(dp1075
g7
S'for'
p1076
sg9
g14
sbag1
(g2
g3
Ntp1077
Rp1078
(dp1079
g7
g181
sg9
g29
sbag1
(g2
g3
Ntp1080
Rp1081
(dp1082
g7
g305
sg9
g24
sbag1
(g2
g3
Ntp1083
Rp1084
(dp1085
g7
g18
sg9
g19
sbag1
(g2
g3
Ntp1086
Rp1087
(dp1088
g7
g458
sg9
g459
sbag1
(g2
g3
Ntp1089
Rp1090
(dp1091
g7
g18
sg9
g19
sbag1
(g2
g3
Ntp1092
Rp1093
(dp1094
g7
g480
sg9
g481
sbag1
(g2
g3
Ntp1095
Rp1096
(dp1097
g7
g37
sg9
g29
sbag1
(g2
g3
Ntp1098
Rp1099
(dp1100
g7
g18
sg9
g19
sbag1
(g2
g3
Ntp1101
Rp1102
(dp1103
g7
g305
sg9
g24
sbag1
(g2
g3
Ntp1104
Rp1105
(dp1106
g7
g18
sg9
g19
sbag1
(g2
g3
Ntp1107
Rp1108
(dp1109
g7
g710
sg9
g459
sbag1
(g2
g3
Ntp1110
Rp1111
(dp1112
g7
g18
sg9
g19
sbag1
(g2
g3
Ntp1113
Rp1114
(dp1115
g7
S'length'
p1116
sg9
g24
sbag1
(g2
g3
Ntp1117
Rp1118
(dp1119
g7
g181
sg9
g29
sbag1
(g2
g3
Ntp1120
Rp1121
(dp1122
g7
g185
sg9
g29
sbag1
(g2
g3
Ntp1123
Rp1124
(dp1125
g7
g37
sg9
g29
sbag1
(g2
g3
Ntp1126
Rp1127
(dp1128
g7
g18
sg9
g19
sbag1
(g2
g3
Ntp1129
Rp1130
(dp1131
g7
g305
sg9
g24
sbag1
(g2
g3
Ntp1132
Rp1133
(dp1134
g7
g18
sg9
g19
sbag1
(g2
g3
Ntp1135
Rp1136
(dp1137
g7
g458
sg9
g459
sbag1
(g2
g3
Ntp1138
Rp1139
(dp1140
g7
g18
sg9
g19
sbag1
(g2
g3
Ntp1141
Rp1142
(dp1143
g7
g305
sg9
g24
sbag1
(g2
g3
Ntp1144
Rp1145
(dp1146
g7
g18
sg9
g19
sbag1
(g2
g3
Ntp1147
Rp1148
(dp1149
g7
g752
sg9
g459
sbag1
(g2
g3
Ntp1150
Rp1151
(dp1152
g7
g18
sg9
g19
sbag1
(g2
g3
Ntp1153
Rp1154
(dp1155
g7
g759
sg9
g481
sbag1
(g2
g3
Ntp1156
Rp1157
(dp1158
g7
g185
sg9
g29
sbag1
(g2
g3
Ntp1159
Rp1160
(dp1161
g7
g41
sg9
g19
sbag1
(g2
g3
Ntp1162
Rp1163
(dp1164
g7
g18
sg9
g19
sbag1
(g2
g3
Ntp1165
Rp1166
(dp1167
g7
g18
sg9
g19
sbag1
(g2
g3
Ntp1168
Rp1169
(dp1170
g7
g18
sg9
g19
sbag1
(g2
g3
Ntp1171
Rp1172
(dp1173
g7
g18
sg9
g19
sbag1
(g2
g3
Ntp1174
Rp1175
(dp1176
g7
g18
sg9
g19
sbag1
(g2
g3
Ntp1177
Rp1178
(dp1179
g7
g18
sg9
g19
sbag1
(g2
g3
Ntp1180
Rp1181
(dp1182
g7
g18
sg9
g19
sbag1
(g2
g3
Ntp1183
Rp1184
(dp1185
g7
g18
sg9
g19
sbag1
(g2
g3
Ntp1186
Rp1187
(dp1188
g7
g18
sg9
g19
sbag1
(g2
g3
Ntp1189
Rp1190
(dp1191
g7
g18
sg9
g19
sbag1
(g2
g3
Ntp1192
Rp1193
(dp1194
g7
g18
sg9
g19
sbag1
(g2
g3
Ntp1195
Rp1196
(dp1197
g7
g18
sg9
g19
sbag1
(g2
g3
Ntp1198
Rp1199
(dp1200
g7
S'newchars'
p1201
sg9
g24
sbag1
(g2
g3
Ntp1202
Rp1203
(dp1204
g7
g130
sg9
g29
sbag1
(g2
g3
Ntp1205
Rp1206
(dp1207
g7
g305
sg9
g24
sbag1
(g2
g3
Ntp1208
Rp1209
(dp1210
g7
g134
sg9
g29
sbag1
(g2
g3
Ntp1211
Rp1212
(dp1213
g7
g18
sg9
g19
sbag1
(g2
g3
Ntp1214
Rp1215
(dp1216
g7
g458
sg9
g459
sbag1
(g2
g3
Ntp1217
Rp1218
(dp1219
g7
g18
sg9
g19
sbag1
(g2
g3
Ntp1220
Rp1221
(dp1222
g7
S'chars'
p1223
sg9
g24
sbag1
(g2
g3
Ntp1224
Rp1225
(dp1226
g7
g130
sg9
g29
sbag1
(g2
g3
Ntp1227
Rp1228
(dp1229
g7
g305
sg9
g24
sbag1
(g2
g3
Ntp1230
Rp1231
(dp1232
g7
g134
sg9
g29
sbag1
(g2
g3
Ntp1233
Rp1234
(dp1235
g7
g37
sg9
g29
sbag1
(g2
g3
Ntp1236
Rp1237
(dp1238
g7
g41
sg9
g19
sbag1
(g2
g3
Ntp1239
Rp1240
(dp1241
g7
g18
sg9
g19
sbag1
(g2
g3
Ntp1242
Rp1243
(dp1244
g7
g18
sg9
g19
sbag1
(g2
g3
Ntp1245
Rp1246
(dp1247
g7
g18
sg9
g19
sbag1
(g2
g3
Ntp1248
Rp1249
(dp1250
g7
g18
sg9
g19
sbag1
(g2
g3
Ntp1251
Rp1252
(dp1253
g7
g18
sg9
g19
sbag1
(g2
g3
Ntp1254
Rp1255
(dp1256
g7
g18
sg9
g19
sbag1
(g2
g3
Ntp1257
Rp1258
(dp1259
g7
g18
sg9
g19
sbag1
(g2
g3
Ntp1260
Rp1261
(dp1262
g7
g18
sg9
g19
sbag1
(g2
g3
Ntp1263
Rp1264
(dp1265
g7
S'for'
p1266
sg9
g14
sbag1
(g2
g3
Ntp1267
Rp1268
(dp1269
g7
g181
sg9
g29
sbag1
(g2
g3
Ntp1270
Rp1271
(dp1272
g7
g305
sg9
g24
sbag1
(g2
g3
Ntp1273
Rp1274
(dp1275
g7
g18
sg9
g19
sbag1
(g2
g3
Ntp1276
Rp1277
(dp1278
g7
g458
sg9
g459
sbag1
(g2
g3
Ntp1279
Rp1280
(dp1281
g7
g18
sg9
g19
sbag1
(g2
g3
Ntp1282
Rp1283
(dp1284
g7
g480
sg9
g481
sbag1
(g2
g3
Ntp1285
Rp1286
(dp1287
g7
g37
sg9
g29
sbag1
(g2
g3
Ntp1288
Rp1289
(dp1290
g7
g18
sg9
g19
sbag1
(g2
g3
Ntp1291
Rp1292
(dp1293
g7
g305
sg9
g24
sbag1
(g2
g3
Ntp1294
Rp1295
(dp1296
g7
g18
sg9
g19
sbag1
(g2
g3
Ntp1297
Rp1298
(dp1299
g7
g710
sg9
g459
sbag1
(g2
g3
Ntp1300
Rp1301
(dp1302
g7
g18
sg9
g19
sbag1
(g2
g3
Ntp1303
Rp1304
(dp1305
g7
S's2'
p1306
sg9
g24
sbag1
(g2
g3
Ntp1307
Rp1308
(dp1309
g7
g28
sg9
g29
sbag1
(g2
g3
Ntp1310
Rp1311
(dp1312
g7
S'length'
p1313
sg9
g24
sbag1
(g2
g3
Ntp1314
Rp1315
(dp1316
g7
g181
sg9
g29
sbag1
(g2
g3
Ntp1317
Rp1318
(dp1319
g7
g185
sg9
g29
sbag1
(g2
g3
Ntp1320
Rp1321
(dp1322
g7
g37
sg9
g29
sbag1
(g2
g3
Ntp1323
Rp1324
(dp1325
g7
g18
sg9
g19
sbag1
(g2
g3
Ntp1326
Rp1327
(dp1328
g7
g305
sg9
g24
sbag1
(g2
g3
Ntp1329
Rp1330
(dp1331
g7
g18
sg9
g19
sbag1
(g2
g3
Ntp1332
Rp1333
(dp1334
g7
g458
sg9
g459
sbag1
(g2
g3
Ntp1335
Rp1336
(dp1337
g7
g18
sg9
g19
sbag1
(g2
g3
Ntp1338
Rp1339
(dp1340
g7
g305
sg9
g24
sbag1
(g2
g3
Ntp1341
Rp1342
(dp1343
g7
g18
sg9
g19
sbag1
(g2
g3
Ntp1344
Rp1345
(dp1346
g7
g752
sg9
g459
sbag1
(g2
g3
Ntp1347
Rp1348
(dp1349
g7
g18
sg9
g19
sbag1
(g2
g3
Ntp1350
Rp1351
(dp1352
g7
g759
sg9
g481
sbag1
(g2
g3
Ntp1353
Rp1354
(dp1355
g7
g185
sg9
g29
sbag1
(g2
g3
Ntp1356
Rp1357
(dp1358
g7
g41
sg9
g19
sbag1
(g2
g3
Ntp1359
Rp1360
(dp1361
g7
g18
sg9
g19
sbag1
(g2
g3
Ntp1362
Rp1363
(dp1364
g7
g18
sg9
g19
sbag1
(g2
g3
Ntp1365
Rp1366
(dp1367
g7
g18
sg9
g19
sbag1
(g2
g3
Ntp1368
Rp1369
(dp1370
g7
g18
sg9
g19
sbag1
(g2
g3
Ntp1371
Rp1372
(dp1373
g7
g18
sg9
g19
sbag1
(g2
g3
Ntp1374
Rp1375
(dp1376
g7
g18
sg9
g19
sbag1
(g2
g3
Ntp1377
Rp1378
(dp1379
g7
g18
sg9
g19
sbag1
(g2
g3
Ntp1380
Rp1381
(dp1382
g7
g18
sg9
g19
sbag1
(g2
g3
Ntp1383
Rp1384
(dp1385
g7
g18
sg9
g19
sbag1
(g2
g3
Ntp1386
Rp1387
(dp1388
g7
g18
sg9
g19
sbag1
(g2
g3
Ntp1389
Rp1390
(dp1391
g7
g18
sg9
g19
sbag1
(g2
g3
Ntp1392
Rp1393
(dp1394
g7
g18
sg9
g19
sbag1
(g2
g3
Ntp1395
Rp1396
(dp1397
g7
S'newchars'
p1398
sg9
g24
sbag1
(g2
g3
Ntp1399
Rp1400
(dp1401
g7
g130
sg9
g29
sbag1
(g2
g3
Ntp1402
Rp1403
(dp1404
g7
g305
sg9
g24
sbag1
(g2
g3
Ntp1405
Rp1406
(dp1407
g7
g752
sg9
g459
sbag1
(g2
g3
Ntp1408
Rp1409
(dp1410
g7
S'length'
p1411
sg9
g24
sbag1
(g2
g3
Ntp1412
Rp1413
(dp1414
g7
g181
sg9
g29
sbag1
(g2
g3
Ntp1415
Rp1416
(dp1417
g7
g185
sg9
g29
sbag1
(g2
g3
Ntp1418
Rp1419
(dp1420
g7
g134
sg9
g29
sbag1
(g2
g3
Ntp1421
Rp1422
(dp1423
g7
g18
sg9
g19
sbag1
(g2
g3
Ntp1424
Rp1425
(dp1426
g7
g458
sg9
g459
sbag1
(g2
g3
Ntp1427
Rp1428
(dp1429
g7
g18
sg9
g19
sbag1
(g2
g3
Ntp1430
Rp1431
(dp1432
g7
S's2'
p1433
sg9
g24
sbag1
(g2
g3
Ntp1434
Rp1435
(dp1436
g7
g28
sg9
g29
sbag1
(g2
g3
Ntp1437
Rp1438
(dp1439
g7
S'chars'
p1440
sg9
g24
sbag1
(g2
g3
Ntp1441
Rp1442
(dp1443
g7
g130
sg9
g29
sbag1
(g2
g3
Ntp1444
Rp1445
(dp1446
g7
g305
sg9
g24
sbag1
(g2
g3
Ntp1447
Rp1448
(dp1449
g7
g134
sg9
g29
sbag1
(g2
g3
Ntp1450
Rp1451
(dp1452
g7
g37
sg9
g29
sbag1
(g2
g3
Ntp1453
Rp1454
(dp1455
g7
g41
sg9
g19
sbag1
(g2
g3
Ntp1456
Rp1457
(dp1458
g7
g18
sg9
g19
sbag1
(g2
g3
Ntp1459
Rp1460
(dp1461
g7
g18
sg9
g19
sbag1
(g2
g3
Ntp1462
Rp1463
(dp1464
g7
g18
sg9
g19
sbag1
(g2
g3
Ntp1465
Rp1466
(dp1467
g7
g18
sg9
g19
sbag1
(g2
g3
Ntp1468
Rp1469
(dp1470
g7
g18
sg9
g19
sbag1
(g2
g3
Ntp1471
Rp1472
(dp1473
g7
g18
sg9
g19
sbag1
(g2
g3
Ntp1474
Rp1475
(dp1476
g7
g18
sg9
g19
sbag1
(g2
g3
Ntp1477
Rp1478
(dp1479
g7
g18
sg9
g19
sbag1
(g2
g3
Ntp1480
Rp1481
(dp1482
g7
S'return'
p1483
sg9
g14
sbag1
(g2
g3
Ntp1484
Rp1485
(dp1486
g7
g18
sg9
g19
sbag1
(g2
g3
Ntp1487
Rp1488
(dp1489
g7
S'new'
p1490
sg9
g14
sbag1
(g2
g3
Ntp1491
Rp1492
(dp1493
g7
g18
sg9
g19
sbag1
(g2
g3
Ntp1494
Rp1495
(dp1496
g7
S'String'
p1497
sg9
g24
sbag1
(g2
g3
Ntp1498
Rp1499
(dp1500
g7
g181
sg9
g29
sbag1
(g2
g3
Ntp1501
Rp1502
(dp1503
g7
S'newchars'
p1504
sg9
g24
sbag1
(g2
g3
Ntp1505
Rp1506
(dp1507
g7
g185
sg9
g29
sbag1
(g2
g3
Ntp1508
Rp1509
(dp1510
g7
g37
sg9
g29
sbag1
(g2
g3
Ntp1511
Rp1512
(dp1513
g7
g41
sg9
g19
sbag1
(g2
g3
Ntp1514
Rp1515
(dp1516
g7
g18
sg9
g19
sbag1
(g2
g3
Ntp1517
Rp1518
(dp1519
g7
g18
sg9
g19
sbag1
(g2
g3
Ntp1520
Rp1521
(dp1522
g7
g18
sg9
g19
sbag1
(g2
g3
Ntp1523
Rp1524
(dp1525
g7
g18
sg9
g19
sbag1
(g2
g3
Ntp1526
Rp1527
(dp1528
g7
g258
sg9
g29
sbag1
(g2
g3
Ntp1529
Rp1530
(dp1531
g7
g41
sg9
g19
sbag1
(g2
g3
Ntp1532
Rp1533
(dp1534
g7
g18
sg9
g19
sbag1
(g2
g3
Ntp1535
Rp1536
(dp1537
g7
g18
sg9
g19
sbag1
(g2
g3
Ntp1538
Rp1539
(dp1540
g7
g18
sg9
g19
sbag1
(g2
g3
Ntp1541
Rp1542
(dp1543
g7
g18
sg9
g19
sbag1
(g2
g3
Ntp1544
Rp1545
(dp1546
g7
S'public'
p1547
sg9
g14
sbag1
(g2
g3
Ntp1548
Rp1549
(dp1550
g7
g18
sg9
g19
sbag1
(g2
g3
Ntp1551
Rp1552
(dp1553
g7
S'static'
p1554
sg9
g14
sbag1
(g2
g3
Ntp1555
Rp1556
(dp1557
g7
g18
sg9
g19
sbag1
(g2
g3
Ntp1558
Rp1559
(dp1560
g7
S'String'
p1561
sg9
g24
sbag1
(g2
g3
Ntp1562
Rp1563
(dp1564
g7
g18
sg9
g19
sbag1
(g2
g3
Ntp1565
Rp1566
(dp1567
g7
S'valueOf'
p1568
sg9
g24
sbag1
(g2
g3
Ntp1569
Rp1570
(dp1571
g7
g181
sg9
g29
sbag1
(g2
g3
Ntp1572
Rp1573
(dp1574
g7
S'char'
p1575
sg9
g14
sbag1
(g2
g3
Ntp1576
Rp1577
(dp1578
g7
g18
sg9
g19
sbag1
(g2
g3
Ntp1579
Rp1580
(dp1581
g7
S'c'
p1582
sg9
g24
sbag1
(g2
g3
Ntp1583
Rp1584
(dp1585
g7
g185
sg9
g29
sbag1
(g2
g3
Ntp1586
Rp1587
(dp1588
g7
g18
sg9
g19
sbag1
(g2
g3
Ntp1589
Rp1590
(dp1591
g7
g100
sg9
g29
sbag1
(g2
g3
Ntp1592
Rp1593
(dp1594
g7
g41
sg9
g19
sbag1
(g2
g3
Ntp1595
Rp1596
(dp1597
g7
g18
sg9
g19
sbag1
(g2
g3
Ntp1598
Rp1599
(dp1600
g7
g18
sg9
g19
sbag1
(g2
g3
Ntp1601
Rp1602
(dp1603
g7
g18
sg9
g19
sbag1
(g2
g3
Ntp1604
Rp1605
(dp1606
g7
g18
sg9
g19
sbag1
(g2
g3
Ntp1607
Rp1608
(dp1609
g7
g18
sg9
g19
sbag1
(g2
g3
Ntp1610
Rp1611
(dp1612
g7
g18
sg9
g19
sbag1
(g2
g3
Ntp1613
Rp1614
(dp1615
g7
g18
sg9
g19
sbag1
(g2
g3
Ntp1616
Rp1617
(dp1618
g7
g18
sg9
g19
sbag1
(g2
g3
Ntp1619
Rp1620
(dp1621
g7
S'char'
p1622
sg9
g14
sbag1
(g2
g3
Ntp1623
Rp1624
(dp1625
g7
g130
sg9
g29
sbag1
(g2
g3
Ntp1626
Rp1627
(dp1628
g7
g134
sg9
g29
sbag1
(g2
g3
Ntp1629
Rp1630
(dp1631
g7
g18
sg9
g19
sbag1
(g2
g3
Ntp1632
Rp1633
(dp1634
g7
S'newchars'
p1635
sg9
g24
sbag1
(g2
g3
Ntp1636
Rp1637
(dp1638
g7
g18
sg9
g19
sbag1
(g2
g3
Ntp1639
Rp1640
(dp1641
g7
g458
sg9
g459
sbag1
(g2
g3
Ntp1642
Rp1643
(dp1644
g7
g18
sg9
g19
sbag1
(g2
g3
Ntp1645
Rp1646
(dp1647
g7
S'new'
p1648
sg9
g14
sbag1
(g2
g3
Ntp1649
Rp1650
(dp1651
g7
g18
sg9
g19
sbag1
(g2
g3
Ntp1652
Rp1653
(dp1654
g7
S'char'
p1655
sg9
g14
sbag1
(g2
g3
Ntp1656
Rp1657
(dp1658
g7
g130
sg9
g29
sbag1
(g2
g3
Ntp1659
Rp1660
(dp1661
g7
g759
sg9
g481
sbag1
(g2
g3
Ntp1662
Rp1663
(dp1664
g7
g134
sg9
g29
sbag1
(g2
g3
Ntp1665
Rp1666
(dp1667
g7
g37
sg9
g29
sbag1
(g2
g3
Ntp1668
Rp1669
(dp1670
g7
g41
sg9
g19
sbag1
(g2
g3
Ntp1671
Rp1672
(dp1673
g7
g18
sg9
g19
sbag1
(g2
g3
Ntp1674
Rp1675
(dp1676
g7
g18
sg9
g19
sbag1
(g2
g3
Ntp1677
Rp1678
(dp1679
g7
g18
sg9
g19
sbag1
(g2
g3
Ntp1680
Rp1681
(dp1682
g7
g18
sg9
g19
sbag1
(g2
g3
Ntp1683
Rp1684
(dp1685
g7
g18
sg9
g19
sbag1
(g2
g3
Ntp1686
Rp1687
(dp1688
g7
g18
sg9
g19
sbag1
(g2
g3
Ntp1689
Rp1690
(dp1691
g7
g18
sg9
g19
sbag1
(g2
g3
Ntp1692
Rp1693
(dp1694
g7
g18
sg9
g19
sbag1
(g2
g3
Ntp1695
Rp1696
(dp1697
g7
S'newchars'
p1698
sg9
g24
sbag1
(g2
g3
Ntp1699
Rp1700
(dp1701
g7
g130
sg9
g29
sbag1
(g2
g3
Ntp1702
Rp1703
(dp1704
g7
g480
sg9
g481
sbag1
(g2
g3
Ntp1705
Rp1706
(dp1707
g7
g134
sg9
g29
sbag1
(g2
g3
Ntp1708
Rp1709
(dp1710
g7
g18
sg9
g19
sbag1
(g2
g3
Ntp1711
Rp1712
(dp1713
g7
g458
sg9
g459
sbag1
(g2
g3
Ntp1714
Rp1715
(dp1716
g7
g18
sg9
g19
sbag1
(g2
g3
Ntp1717
Rp1718
(dp1719
g7
g1582
sg9
g24
sbag1
(g2
g3
Ntp1720
Rp1721
(dp1722
g7
g37
sg9
g29
sbag1
(g2
g3
Ntp1723
Rp1724
(dp1725
g7
g41
sg9
g19
sbag1
(g2
g3
Ntp1726
Rp1727
(dp1728
g7
g18
sg9
g19
sbag1
(g2
g3
Ntp1729
Rp1730
(dp1731
g7
g18
sg9
g19
sbag1
(g2
g3
Ntp1732
Rp1733
(dp1734
g7
g18
sg9
g19
sbag1
(g2
g3
Ntp1735
Rp1736
(dp1737
g7
g18
sg9
g19
sbag1
(g2
g3
Ntp1738
Rp1739
(dp1740
g7
g18
sg9
g19
sbag1
(g2
g3
Ntp1741
Rp1742
(dp1743
g7
g18
sg9
g19
sbag1
(g2
g3
Ntp1744
Rp1745
(dp1746
g7
g18
sg9
g19
sbag1
(g2
g3
Ntp1747
Rp1748
(dp1749
g7
g18
sg9
g19
sbag1
(g2
g3
Ntp1750
Rp1751
(dp1752
g7
S'return'
p1753
sg9
g14
sbag1
(g2
g3
Ntp1754
Rp1755
(dp1756
g7
g18
sg9
g19
sbag1
(g2
g3
Ntp1757
Rp1758
(dp1759
g7
S'new'
p1760
sg9
g14
sbag1
(g2
g3
Ntp1761
Rp1762
(dp1763
g7
g18
sg9
g19
sbag1
(g2
g3
Ntp1764
Rp1765
(dp1766
g7
S'String'
p1767
sg9
g24
sbag1
(g2
g3
Ntp1768
Rp1769
(dp1770
g7
g181
sg9
g29
sbag1
(g2
g3
Ntp1771
Rp1772
(dp1773
g7
S'newchars'
p1774
sg9
g24
sbag1
(g2
g3
Ntp1775
Rp1776
(dp1777
g7
g185
sg9
g29
sbag1
(g2
g3
Ntp1778
Rp1779
(dp1780
g7
g37
sg9
g29
sbag1
(g2
g3
Ntp1781
Rp1782
(dp1783
g7
g41
sg9
g19
sbag1
(g2
g3
Ntp1784
Rp1785
(dp1786
g7
g18
sg9
g19
sbag1
(g2
g3
Ntp1787
Rp1788
(dp1789
g7
g18
sg9
g19
sbag1
(g2
g3
Ntp1790
Rp1791
(dp1792
g7
g18
sg9
g19
sbag1
(g2
g3
Ntp1793
Rp1794
(dp1795
g7
g18
sg9
g19
sbag1
(g2
g3
Ntp1796
Rp1797
(dp1798
g7
g258
sg9
g29
sbag1
(g2
g3
Ntp1799
Rp1800
(dp1801
g7
g41
sg9
g19
sbag1
(g2
g3
Ntp1802
Rp1803
(dp1804
g7
g18
sg9
g19
sbag1
(g2
g3
Ntp1805
Rp1806
(dp1807
g7
g18
sg9
g19
sbag1
(g2
g3
Ntp1808
Rp1809
(dp1810
g7
g18
sg9
g19
sbag1
(g2
g3
Ntp1811
Rp1812
(dp1813
g7
g18
sg9
g19
sbag1
(g2
g3
Ntp1814
Rp1815
(dp1816
g7
S'public'
p1817
sg9
g14
sbag1
(g2
g3
Ntp1818
Rp1819
(dp1820
g7
g18
sg9
g19
sbag1
(g2
g3
Ntp1821
Rp1822
(dp1823
g7
S'static'
p1824
sg9
g14
sbag1
(g2
g3
Ntp1825
Rp1826
(dp1827
g7
g18
sg9
g19
sbag1
(g2
g3
Ntp1828
Rp1829
(dp1830
g7
S'String'
p1831
sg9
g24
sbag1
(g2
g3
Ntp1832
Rp1833
(dp1834
g7
g18
sg9
g19
sbag1
(g2
g3
Ntp1835
Rp1836
(dp1837
g7
S'valueOf'
p1838
sg9
g24
sbag1
(g2
g3
Ntp1839
Rp1840
(dp1841
g7
g181
sg9
g29
sbag1
(g2
g3
Ntp1842
Rp1843
(dp1844
g7
S'int'
p1845
sg9
g14
sbag1
(g2
g3
Ntp1846
Rp1847
(dp1848
g7
g18
sg9
g19
sbag1
(g2
g3
Ntp1849
Rp1850
(dp1851
g7
g305
sg9
g24
sbag1
(g2
g3
Ntp1852
Rp1853
(dp1854
g7
g185
sg9
g29
sbag1
(g2
g3
Ntp1855
Rp1856
(dp1857
g7
g18
sg9
g19
sbag1
(g2
g3
Ntp1858
Rp1859
(dp1860
g7
g100
sg9
g29
sbag1
(g2
g3
Ntp1861
Rp1862
(dp1863
g7
g41
sg9
g19
sbag1
(g2
g3
Ntp1864
Rp1865
(dp1866
g7
g18
sg9
g19
sbag1
(g2
g3
Ntp1867
Rp1868
(dp1869
g7
g18
sg9
g19
sbag1
(g2
g3
Ntp1870
Rp1871
(dp1872
g7
g18
sg9
g19
sbag1
(g2
g3
Ntp1873
Rp1874
(dp1875
g7
g18
sg9
g19
sbag1
(g2
g3
Ntp1876
Rp1877
(dp1878
g7
g18
sg9
g19
sbag1
(g2
g3
Ntp1879
Rp1880
(dp1881
g7
g18
sg9
g19
sbag1
(g2
g3
Ntp1882
Rp1883
(dp1884
g7
g18
sg9
g19
sbag1
(g2
g3
Ntp1885
Rp1886
(dp1887
g7
g18
sg9
g19
sbag1
(g2
g3
Ntp1888
Rp1889
(dp1890
g7
S'char'
p1891
sg9
g14
sbag1
(g2
g3
Ntp1892
Rp1893
(dp1894
g7
g130
sg9
g29
sbag1
(g2
g3
Ntp1895
Rp1896
(dp1897
g7
g134
sg9
g29
sbag1
(g2
g3
Ntp1898
Rp1899
(dp1900
g7
g18
sg9
g19
sbag1
(g2
g3
Ntp1901
Rp1902
(dp1903
g7
S'ret'
p1904
sg9
g24
sbag1
(g2
g3
Ntp1905
Rp1906
(dp1907
g7
g18
sg9
g19
sbag1
(g2
g3
Ntp1908
Rp1909
(dp1910
g7
g458
sg9
g459
sbag1
(g2
g3
Ntp1911
Rp1912
(dp1913
g7
g18
sg9
g19
sbag1
(g2
g3
Ntp1914
Rp1915
(dp1916
g7
S'new'
p1917
sg9
g14
sbag1
(g2
g3
Ntp1918
Rp1919
(dp1920
g7
g18
sg9
g19
sbag1
(g2
g3
Ntp1921
Rp1922
(dp1923
g7
S'char'
p1924
sg9
g14
sbag1
(g2
g3
Ntp1925
Rp1926
(dp1927
g7
g130
sg9
g29
sbag1
(g2
g3
Ntp1928
Rp1929
(dp1930
g7
S'15'
p1931
sg9
g481
sbag1
(g2
g3
Ntp1932
Rp1933
(dp1934
g7
g134
sg9
g29
sbag1
(g2
g3
Ntp1935
Rp1936
(dp1937
g7
g37
sg9
g29
sbag1
(g2
g3
Ntp1938
Rp1939
(dp1940
g7
g41
sg9
g19
sbag1
(g2
g3
Ntp1941
Rp1942
(dp1943
g7
g18
sg9
g19
sbag1
(g2
g3
Ntp1944
Rp1945
(dp1946
g7
g18
sg9
g19
sbag1
(g2
g3
Ntp1947
Rp1948
(dp1949
g7
g18
sg9
g19
sbag1
(g2
g3
Ntp1950
Rp1951
(dp1952
g7
g18
sg9
g19
sbag1
(g2
g3
Ntp1953
Rp1954
(dp1955
g7
g18
sg9
g19
sbag1
(g2
g3
Ntp1956
Rp1957
(dp1958
g7
g18
sg9
g19
sbag1
(g2
g3
Ntp1959
Rp1960
(dp1961
g7
g18
sg9
g19
sbag1
(g2
g3
Ntp1962
Rp1963
(dp1964
g7
g18
sg9
g19
sbag1
(g2
g3
Ntp1965
Rp1966
(dp1967
g7
S'int'
p1968
sg9
g14
sbag1
(g2
g3
Ntp1969
Rp1970
(dp1971
g7
g18
sg9
g19
sbag1
(g2
g3
Ntp1972
Rp1973
(dp1974
g7
S'j'
p1975
sg9
g24
sbag1
(g2
g3
Ntp1976
Rp1977
(dp1978
g7
g18
sg9
g19
sbag1
(g2
g3
Ntp1979
Rp1980
(dp1981
g7
g458
sg9
g459
sbag1
(g2
g3
Ntp1982
Rp1983
(dp1984
g7
g18
sg9
g19
sbag1
(g2
g3
Ntp1985
Rp1986
(dp1987
g7
g480
sg9
g481
sbag1
(g2
g3
Ntp1988
Rp1989
(dp1990
g7
g37
sg9
g29
sbag1
(g2
g3
Ntp1991
Rp1992
(dp1993
g7
g41
sg9
g19
sbag1
(g2
g3
Ntp1994
Rp1995
(dp1996
g7
g18
sg9
g19
sbag1
(g2
g3
Ntp1997
Rp1998
(dp1999
g7
g18
sg9
g19
sbag1
(g2
g3
Ntp2000
Rp2001
(dp2002
g7
g18
sg9
g19
sbag1
(g2
g3
Ntp2003
Rp2004
(dp2005
g7
g18
sg9
g19
sbag1
(g2
g3
Ntp2006
Rp2007
(dp2008
g7
g18
sg9
g19
sbag1
(g2
g3
Ntp2009
Rp2010
(dp2011
g7
g18
sg9
g19
sbag1
(g2
g3
Ntp2012
Rp2013
(dp2014
g7
g18
sg9
g19
sbag1
(g2
g3
Ntp2015
Rp2016
(dp2017
g7
g18
sg9
g19
sbag1
(g2
g3
Ntp2018
Rp2019
(dp2020
g7
S'boolean'
p2021
sg9
g14
sbag1
(g2
g3
Ntp2022
Rp2023
(dp2024
g7
g18
sg9
g19
sbag1
(g2
g3
Ntp2025
Rp2026
(dp2027
g7
S'wasneg'
p2028
sg9
g24
sbag1
(g2
g3
Ntp2029
Rp2030
(dp2031
g7
g18
sg9
g19
sbag1
(g2
g3
Ntp2032
Rp2033
(dp2034
g7
g458
sg9
g459
sbag1
(g2
g3
Ntp2035
Rp2036
(dp2037
g7
g18
sg9
g19
sbag1
(g2
g3
Ntp2038
Rp2039
(dp2040
g7
S'false'
p2041
sg9
g481
sbag1
(g2
g3
Ntp2042
Rp2043
(dp2044
g7
g37
sg9
g29
sbag1
(g2
g3
Ntp2045
Rp2046
(dp2047
g7
g41
sg9
g19
sbag1
(g2
g3
Ntp2048
Rp2049
(dp2050
g7
g18
sg9
g19
sbag1
(g2
g3
Ntp2051
Rp2052
(dp2053
g7
g18
sg9
g19
sbag1
(g2
g3
Ntp2054
Rp2055
(dp2056
g7
g18
sg9
g19
sbag1
(g2
g3
Ntp2057
Rp2058
(dp2059
g7
g18
sg9
g19
sbag1
(g2
g3
Ntp2060
Rp2061
(dp2062
g7
g18
sg9
g19
sbag1
(g2
g3
Ntp2063
Rp2064
(dp2065
g7
g18
sg9
g19
sbag1
(g2
g3
Ntp2066
Rp2067
(dp2068
g7
g18
sg9
g19
sbag1
(g2
g3
Ntp2069
Rp2070
(dp2071
g7
g18
sg9
g19
sbag1
(g2
g3
Ntp2072
Rp2073
(dp2074
g7
S'if'
p2075
sg9
g14
sbag1
(g2
g3
Ntp2076
Rp2077
(dp2078
g7
g181
sg9
g29
sbag1
(g2
g3
Ntp2079
Rp2080
(dp2081
g7
g305
sg9
g24
sbag1
(g2
g3
Ntp2082
Rp2083
(dp2084
g7
g710
sg9
g459
sbag1
(g2
g3
Ntp2085
Rp2086
(dp2087
g7
g480
sg9
g481
sbag1
(g2
g3
Ntp2088
Rp2089
(dp2090
g7
g185
sg9
g29
sbag1
(g2
g3
Ntp2091
Rp2092
(dp2093
g7
g18
sg9
g19
sbag1
(g2
g3
Ntp2094
Rp2095
(dp2096
g7
g100
sg9
g29
sbag1
(g2
g3
Ntp2097
Rp2098
(dp2099
g7
g41
sg9
g19
sbag1
(g2
g3
Ntp2100
Rp2101
(dp2102
g7
g18
sg9
g19
sbag1
(g2
g3
Ntp2103
Rp2104
(dp2105
g7
g18
sg9
g19
sbag1
(g2
g3
Ntp2106
Rp2107
(dp2108
g7
g18
sg9
g19
sbag1
(g2
g3
Ntp2109
Rp2110
(dp2111
g7
g18
sg9
g19
sbag1
(g2
g3
Ntp2112
Rp2113
(dp2114
g7
g18
sg9
g19
sbag1
(g2
g3
Ntp2115
Rp2116
(dp2117
g7
g18
sg9
g19
sbag1
(g2
g3
Ntp2118
Rp2119
(dp2120
g7
g18
sg9
g19
sbag1
(g2
g3
Ntp2121
Rp2122
(dp2123
g7
g18
sg9
g19
sbag1
(g2
g3
Ntp2124
Rp2125
(dp2126
g7
g18
sg9
g19
sbag1
(g2
g3
Ntp2127
Rp2128
(dp2129
g7
g18
sg9
g19
sbag1
(g2
g3
Ntp2130
Rp2131
(dp2132
g7
g18
sg9
g19
sbag1
(g2
g3
Ntp2133
Rp2134
(dp2135
g7
g18
sg9
g19
sbag1
(g2
g3
Ntp2136
Rp2137
(dp2138
g7
S'wasneg'
p2139
sg9
g24
sbag1
(g2
g3
Ntp2140
Rp2141
(dp2142
g7
g18
sg9
g19
sbag1
(g2
g3
Ntp2143
Rp2144
(dp2145
g7
g458
sg9
g459
sbag1
(g2
g3
Ntp2146
Rp2147
(dp2148
g7
g18
sg9
g19
sbag1
(g2
g3
Ntp2149
Rp2150
(dp2151
g7
S'true'
p2152
sg9
g481
sbag1
(g2
g3
Ntp2153
Rp2154
(dp2155
g7
g37
sg9
g29
sbag1
(g2
g3
Ntp2156
Rp2157
(dp2158
g7
g41
sg9
g19
sbag1
(g2
g3
Ntp2159
Rp2160
(dp2161
g7
g18
sg9
g19
sbag1
(g2
g3
Ntp2162
Rp2163
(dp2164
g7
g18
sg9
g19
sbag1
(g2
g3
Ntp2165
Rp2166
(dp2167
g7
g18
sg9
g19
sbag1
(g2
g3
Ntp2168
Rp2169
(dp2170
g7
g18
sg9
g19
sbag1
(g2
g3
Ntp2171
Rp2172
(dp2173
g7
g18
sg9
g19
sbag1
(g2
g3
Ntp2174
Rp2175
(dp2176
g7
g18
sg9
g19
sbag1
(g2
g3
Ntp2177
Rp2178
(dp2179
g7
g18
sg9
g19
sbag1
(g2
g3
Ntp2180
Rp2181
(dp2182
g7
g18
sg9
g19
sbag1
(g2
g3
Ntp2183
Rp2184
(dp2185
g7
g18
sg9
g19
sbag1
(g2
g3
Ntp2186
Rp2187
(dp2188
g7
g18
sg9
g19
sbag1
(g2
g3
Ntp2189
Rp2190
(dp2191
g7
g18
sg9
g19
sbag1
(g2
g3
Ntp2192
Rp2193
(dp2194
g7
g18
sg9
g19
sbag1
(g2
g3
Ntp2195
Rp2196
(dp2197
g7
g305
sg9
g24
sbag1
(g2
g3
Ntp2198
Rp2199
(dp2200
g7
g18
sg9
g19
sbag1
(g2
g3
Ntp2201
Rp2202
(dp2203
g7
g458
sg9
g459
sbag1
(g2
g3
Ntp2204
Rp2205
(dp2206
g7
g18
sg9
g19
sbag1
(g2
g3
Ntp2207
Rp2208
(dp2209
g7
S'-'
p2210
sg9
g459
sbag1
(g2
g3
Ntp2211
Rp2212
(dp2213
g7
g305
sg9
g24
sbag1
(g2
g3
Ntp2214
Rp2215
(dp2216
g7
g37
sg9
g29
sbag1
(g2
g3
Ntp2217
Rp2218
(dp2219
g7
g41
sg9
g19
sbag1
(g2
g3
Ntp2220
Rp2221
(dp2222
g7
g18
sg9
g19
sbag1
(g2
g3
Ntp2223
Rp2224
(dp2225
g7
g18
sg9
g19
sbag1
(g2
g3
Ntp2226
Rp2227
(dp2228
g7
g18
sg9
g19
sbag1
(g2
g3
Ntp2229
Rp2230
(dp2231
g7
g18
sg9
g19
sbag1
(g2
g3
Ntp2232
Rp2233
(dp2234
g7
g18
sg9
g19
sbag1
(g2
g3
Ntp2235
Rp2236
(dp2237
g7
g18
sg9
g19
sbag1
(g2
g3
Ntp2238
Rp2239
(dp2240
g7
g18
sg9
g19
sbag1
(g2
g3
Ntp2241
Rp2242
(dp2243
g7
g18
sg9
g19
sbag1
(g2
g3
Ntp2244
Rp2245
(dp2246
g7
g258
sg9
g29
sbag1
(g2
g3
Ntp2247
Rp2248
(dp2249
g7
g41
sg9
g19
sbag1
(g2
g3
Ntp2250
Rp2251
(dp2252
g7
g18
sg9
g19
sbag1
(g2
g3
Ntp2253
Rp2254
(dp2255
g7
g18
sg9
g19
sbag1
(g2
g3
Ntp2256
Rp2257
(dp2258
g7
g18
sg9
g19
sbag1
(g2
g3
Ntp2259
Rp2260
(dp2261
g7
g18
sg9
g19
sbag1
(g2
g3
Ntp2262
Rp2263
(dp2264
g7
g18
sg9
g19
sbag1
(g2
g3
Ntp2265
Rp2266
(dp2267
g7
g18
sg9
g19
sbag1
(g2
g3
Ntp2268
Rp2269
(dp2270
g7
g18
sg9
g19
sbag1
(g2
g3
Ntp2271
Rp2272
(dp2273
g7
g18
sg9
g19
sbag1
(g2
g3
Ntp2274
Rp2275
(dp2276
g7
S'if'
p2277
sg9
g14
sbag1
(g2
g3
Ntp2278
Rp2279
(dp2280
g7
g181
sg9
g29
sbag1
(g2
g3
Ntp2281
Rp2282
(dp2283
g7
g305
sg9
g24
sbag1
(g2
g3
Ntp2284
Rp2285
(dp2286
g7
g18
sg9
g19
sbag1
(g2
g3
Ntp2287
Rp2288
(dp2289
g7
S'=='
p2290
sg9
g459
sbag1
(g2
g3
Ntp2291
Rp2292
(dp2293
g7
g18
sg9
g19
sbag1
(g2
g3
Ntp2294
Rp2295
(dp2296
g7
g480
sg9
g481
sbag1
(g2
g3
Ntp2297
Rp2298
(dp2299
g7
g185
sg9
g29
sbag1
(g2
g3
Ntp2300
Rp2301
(dp2302
g7
g18
sg9
g19
sbag1
(g2
g3
Ntp2303
Rp2304
(dp2305
g7
g100
sg9
g29
sbag1
(g2
g3
Ntp2306
Rp2307
(dp2308
g7
g41
sg9
g19
sbag1
(g2
g3
Ntp2309
Rp2310
(dp2311
g7
g18
sg9
g19
sbag1
(g2
g3
Ntp2312
Rp2313
(dp2314
g7
g18
sg9
g19
sbag1
(g2
g3
Ntp2315
Rp2316
(dp2317
g7
g18
sg9
g19
sbag1
(g2
g3
Ntp2318
Rp2319
(dp2320
g7
g18
sg9
g19
sbag1
(g2
g3
Ntp2321
Rp2322
(dp2323
g7
g18
sg9
g19
sbag1
(g2
g3
Ntp2324
Rp2325
(dp2326
g7
g18
sg9
g19
sbag1
(g2
g3
Ntp2327
Rp2328
(dp2329
g7
g18
sg9
g19
sbag1
(g2
g3
Ntp2330
Rp2331
(dp2332
g7
g18
sg9
g19
sbag1
(g2
g3
Ntp2333
Rp2334
(dp2335
g7
g18
sg9
g19
sbag1
(g2
g3
Ntp2336
Rp2337
(dp2338
g7
g18
sg9
g19
sbag1
(g2
g3
Ntp2339
Rp2340
(dp2341
g7
g18
sg9
g19
sbag1
(g2
g3
Ntp2342
Rp2343
(dp2344
g7
g18
sg9
g19
sbag1
(g2
g3
Ntp2345
Rp2346
(dp2347
g7
S'ret'
p2348
sg9
g24
sbag1
(g2
g3
Ntp2349
Rp2350
(dp2351
g7
g130
sg9
g29
sbag1
(g2
g3
Ntp2352
Rp2353
(dp2354
g7
g1975
sg9
g24
sbag1
(g2
g3
Ntp2355
Rp2356
(dp2357
g7
g134
sg9
g29
sbag1
(g2
g3
Ntp2358
Rp2359
(dp2360
g7
g18
sg9
g19
sbag1
(g2
g3
Ntp2361
Rp2362
(dp2363
g7
g458
sg9
g459
sbag1
(g2
g3
Ntp2364
Rp2365
(dp2366
g7
g18
sg9
g19
sbag1
(g2
g3
Ntp2367
Rp2368
(dp2369
g7
S"'0'"
p2370
sg9
g481
sbag1
(g2
g3
Ntp2371
Rp2372
(dp2373
g7
g37
sg9
g29
sbag1
(g2
g3
Ntp2374
Rp2375
(dp2376
g7
g41
sg9
g19
sbag1
(g2
g3
Ntp2377
Rp2378
(dp2379
g7
g18
sg9
g19
sbag1
(g2
g3
Ntp2380
Rp2381
(dp2382
g7
g18
sg9
g19
sbag1
(g2
g3
Ntp2383
Rp2384
(dp2385
g7
g18
sg9
g19
sbag1
(g2
g3
Ntp2386
Rp2387
(dp2388
g7
g18
sg9
g19
sbag1
(g2
g3
Ntp2389
Rp2390
(dp2391
g7
g18
sg9
g19
sbag1
(g2
g3
Ntp2392
Rp2393
(dp2394
g7
g18
sg9
g19
sbag1
(g2
g3
Ntp2395
Rp2396
(dp2397
g7
g18
sg9
g19
sbag1
(g2
g3
Ntp2398
Rp2399
(dp2400
g7
g18
sg9
g19
sbag1
(g2
g3
Ntp2401
Rp2402
(dp2403
g7
g18
sg9
g19
sbag1
(g2
g3
Ntp2404
Rp2405
(dp2406
g7
g18
sg9
g19
sbag1
(g2
g3
Ntp2407
Rp2408
(dp2409
g7
g18
sg9
g19
sbag1
(g2
g3
Ntp2410
Rp2411
(dp2412
g7
g18
sg9
g19
sbag1
(g2
g3
Ntp2413
Rp2414
(dp2415
g7
g1975
sg9
g24
sbag1
(g2
g3
Ntp2416
Rp2417
(dp2418
g7
g18
sg9
g19
sbag1
(g2
g3
Ntp2419
Rp2420
(dp2421
g7
g458
sg9
g459
sbag1
(g2
g3
Ntp2422
Rp2423
(dp2424
g7
g18
sg9
g19
sbag1
(g2
g3
Ntp2425
Rp2426
(dp2427
g7
g1975
sg9
g24
sbag1
(g2
g3
Ntp2428
Rp2429
(dp2430
g7
g18
sg9
g19
sbag1
(g2
g3
Ntp2431
Rp2432
(dp2433
g7
g752
sg9
g459
sbag1
(g2
g3
Ntp2434
Rp2435
(dp2436
g7
g18
sg9
g19
sbag1
(g2
g3
Ntp2437
Rp2438
(dp2439
g7
g759
sg9
g481
sbag1
(g2
g3
Ntp2440
Rp2441
(dp2442
g7
g37
sg9
g29
sbag1
(g2
g3
Ntp2443
Rp2444
(dp2445
g7
g41
sg9
g19
sbag1
(g2
g3
Ntp2446
Rp2447
(dp2448
g7
g18
sg9
g19
sbag1
(g2
g3
Ntp2449
Rp2450
(dp2451
g7
g18
sg9
g19
sbag1
(g2
g3
Ntp2452
Rp2453
(dp2454
g7
g18
sg9
g19
sbag1
(g2
g3
Ntp2455
Rp2456
(dp2457
g7
g18
sg9
g19
sbag1
(g2
g3
Ntp2458
Rp2459
(dp2460
g7
g18
sg9
g19
sbag1
(g2
g3
Ntp2461
Rp2462
(dp2463
g7
g18
sg9
g19
sbag1
(g2
g3
Ntp2464
Rp2465
(dp2466
g7
g18
sg9
g19
sbag1
(g2
g3
Ntp2467
Rp2468
(dp2469
g7
g18
sg9
g19
sbag1
(g2
g3
Ntp2470
Rp2471
(dp2472
g7
g258
sg9
g29
sbag1
(g2
g3
Ntp2473
Rp2474
(dp2475
g7
g18
sg9
g19
sbag1
(g2
g3
Ntp2476
Rp2477
(dp2478
g7
S'else'
p2479
sg9
g14
sbag1
(g2
g3
Ntp2480
Rp2481
(dp2482
g7
g18
sg9
g19
sbag1
(g2
g3
Ntp2483
Rp2484
(dp2485
g7
g100
sg9
g29
sbag1
(g2
g3
Ntp2486
Rp2487
(dp2488
g7
g41
sg9
g19
sbag1
(g2
g3
Ntp2489
Rp2490
(dp2491
g7
g18
sg9
g19
sbag1
(g2
g3
Ntp2492
Rp2493
(dp2494
g7
g18
sg9
g19
sbag1
(g2
g3
Ntp2495
Rp2496
(dp2497
g7
g18
sg9
g19
sbag1
(g2
g3
Ntp2498
Rp2499
(dp2500
g7
g18
sg9
g19
sbag1
(g2
g3
Ntp2501
Rp2502
(dp2503
g7
g18
sg9
g19
sbag1
(g2
g3
Ntp2504
Rp2505
(dp2506
g7
g18
sg9
g19
sbag1
(g2
g3
Ntp2507
Rp2508
(dp2509
g7
g18
sg9
g19
sbag1
(g2
g3
Ntp2510
Rp2511
(dp2512
g7
g18
sg9
g19
sbag1
(g2
g3
Ntp2513
Rp2514
(dp2515
g7
g18
sg9
g19
sbag1
(g2
g3
Ntp2516
Rp2517
(dp2518
g7
g18
sg9
g19
sbag1
(g2
g3
Ntp2519
Rp2520
(dp2521
g7
g18
sg9
g19
sbag1
(g2
g3
Ntp2522
Rp2523
(dp2524
g7
g18
sg9
g19
sbag1
(g2
g3
Ntp2525
Rp2526
(dp2527
g7
S'while'
p2528
sg9
g14
sbag1
(g2
g3
Ntp2529
Rp2530
(dp2531
g7
g181
sg9
g29
sbag1
(g2
g3
Ntp2532
Rp2533
(dp2534
g7
g305
sg9
g24
sbag1
(g2
g3
Ntp2535
Rp2536
(dp2537
g7
g18
sg9
g19
sbag1
(g2
g3
Ntp2538
Rp2539
(dp2540
g7
S'>'
p2541
sg9
g459
sbag1
(g2
g3
Ntp2542
Rp2543
(dp2544
g7
g18
sg9
g19
sbag1
(g2
g3
Ntp2545
Rp2546
(dp2547
g7
g480
sg9
g481
sbag1
(g2
g3
Ntp2548
Rp2549
(dp2550
g7
g185
sg9
g29
sbag1
(g2
g3
Ntp2551
Rp2552
(dp2553
g7
g18
sg9
g19
sbag1
(g2
g3
Ntp2554
Rp2555
(dp2556
g7
g100
sg9
g29
sbag1
(g2
g3
Ntp2557
Rp2558
(dp2559
g7
g41
sg9
g19
sbag1
(g2
g3
Ntp2560
Rp2561
(dp2562
g7
g18
sg9
g19
sbag1
(g2
g3
Ntp2563
Rp2564
(dp2565
g7
g18
sg9
g19
sbag1
(g2
g3
Ntp2566
Rp2567
(dp2568
g7
g18
sg9
g19
sbag1
(g2
g3
Ntp2569
Rp2570
(dp2571
g7
g18
sg9
g19
sbag1
(g2
g3
Ntp2572
Rp2573
(dp2574
g7
g18
sg9
g19
sbag1
(g2
g3
Ntp2575
Rp2576
(dp2577
g7
g18
sg9
g19
sbag1
(g2
g3
Ntp2578
Rp2579
(dp2580
g7
g18
sg9
g19
sbag1
(g2
g3
Ntp2581
Rp2582
(dp2583
g7
g18
sg9
g19
sbag1
(g2
g3
Ntp2584
Rp2585
(dp2586
g7
g18
sg9
g19
sbag1
(g2
g3
Ntp2587
Rp2588
(dp2589
g7
g18
sg9
g19
sbag1
(g2
g3
Ntp2590
Rp2591
(dp2592
g7
g18
sg9
g19
sbag1
(g2
g3
Ntp2593
Rp2594
(dp2595
g7
g18
sg9
g19
sbag1
(g2
g3
Ntp2596
Rp2597
(dp2598
g7
g18
sg9
g19
sbag1
(g2
g3
Ntp2599
Rp2600
(dp2601
g7
g18
sg9
g19
sbag1
(g2
g3
Ntp2602
Rp2603
(dp2604
g7
g18
sg9
g19
sbag1
(g2
g3
Ntp2605
Rp2606
(dp2607
g7
g18
sg9
g19
sbag1
(g2
g3
Ntp2608
Rp2609
(dp2610
g7
S'int'
p2611
sg9
g14
sbag1
(g2
g3
Ntp2612
Rp2613
(dp2614
g7
g18
sg9
g19
sbag1
(g2
g3
Ntp2615
Rp2616
(dp2617
g7
S'd'
p2618
sg9
g24
sbag1
(g2
g3
Ntp2619
Rp2620
(dp2621
g7
g18
sg9
g19
sbag1
(g2
g3
Ntp2622
Rp2623
(dp2624
g7
g458
sg9
g459
sbag1
(g2
g3
Ntp2625
Rp2626
(dp2627
g7
g18
sg9
g19
sbag1
(g2
g3
Ntp2628
Rp2629
(dp2630
g7
g305
sg9
g24
sbag1
(g2
g3
Ntp2631
Rp2632
(dp2633
g7
g18
sg9
g19
sbag1
(g2
g3
Ntp2634
Rp2635
(dp2636
g7
S'%'
p2637
sg9
g459
sbag1
(g2
g3
Ntp2638
Rp2639
(dp2640
g7
g18
sg9
g19
sbag1
(g2
g3
Ntp2641
Rp2642
(dp2643
g7
S'10'
p2644
sg9
g481
sbag1
(g2
g3
Ntp2645
Rp2646
(dp2647
g7
g37
sg9
g29
sbag1
(g2
g3
Ntp2648
Rp2649
(dp2650
g7
g41
sg9
g19
sbag1
(g2
g3
Ntp2651
Rp2652
(dp2653
g7
g18
sg9
g19
sbag1
(g2
g3
Ntp2654
Rp2655
(dp2656
g7
g18
sg9
g19
sbag1
(g2
g3
Ntp2657
Rp2658
(dp2659
g7
g18
sg9
g19
sbag1
(g2
g3
Ntp2660
Rp2661
(dp2662
g7
g18
sg9
g19
sbag1
(g2
g3
Ntp2663
Rp2664
(dp2665
g7
g18
sg9
g19
sbag1
(g2
g3
Ntp2666
Rp2667
(dp2668
g7
g18
sg9
g19
sbag1
(g2
g3
Ntp2669
Rp2670
(dp2671
g7
g18
sg9
g19
sbag1
(g2
g3
Ntp2672
Rp2673
(dp2674
g7
g18
sg9
g19
sbag1
(g2
g3
Ntp2675
Rp2676
(dp2677
g7
g18
sg9
g19
sbag1
(g2
g3
Ntp2678
Rp2679
(dp2680
g7
g18
sg9
g19
sbag1
(g2
g3
Ntp2681
Rp2682
(dp2683
g7
g18
sg9
g19
sbag1
(g2
g3
Ntp2684
Rp2685
(dp2686
g7
g18
sg9
g19
sbag1
(g2
g3
Ntp2687
Rp2688
(dp2689
g7
g18
sg9
g19
sbag1
(g2
g3
Ntp2690
Rp2691
(dp2692
g7
g18
sg9
g19
sbag1
(g2
g3
Ntp2693
Rp2694
(dp2695
g7
g18
sg9
g19
sbag1
(g2
g3
Ntp2696
Rp2697
(dp2698
g7
g18
sg9
g19
sbag1
(g2
g3
Ntp2699
Rp2700
(dp2701
g7
g305
sg9
g24
sbag1
(g2
g3
Ntp2702
Rp2703
(dp2704
g7
g18
sg9
g19
sbag1
(g2
g3
Ntp2705
Rp2706
(dp2707
g7
g458
sg9
g459
sbag1
(g2
g3
Ntp2708
Rp2709
(dp2710
g7
g18
sg9
g19
sbag1
(g2
g3
Ntp2711
Rp2712
(dp2713
g7
g305
sg9
g24
sbag1
(g2
g3
Ntp2714
Rp2715
(dp2716
g7
g18
sg9
g19
sbag1
(g2
g3
Ntp2717
Rp2718
(dp2719
g7
S'/'
p2720
sg9
g459
sbag1
(g2
g3
Ntp2721
Rp2722
(dp2723
g7
g18
sg9
g19
sbag1
(g2
g3
Ntp2724
Rp2725
(dp2726
g7
S'10'
p2727
sg9
g481
sbag1
(g2
g3
Ntp2728
Rp2729
(dp2730
g7
g37
sg9
g29
sbag1
(g2
g3
Ntp2731
Rp2732
(dp2733
g7
g41
sg9
g19
sbag1
(g2
g3
Ntp2734
Rp2735
(dp2736
g7
g18
sg9
g19
sbag1
(g2
g3
Ntp2737
Rp2738
(dp2739
g7
g18
sg9
g19
sbag1
(g2
g3
Ntp2740
Rp2741
(dp2742
g7
g18
sg9
g19
sbag1
(g2
g3
Ntp2743
Rp2744
(dp2745
g7
g18
sg9
g19
sbag1
(g2
g3
Ntp2746
Rp2747
(dp2748
g7
g18
sg9
g19
sbag1
(g2
g3
Ntp2749
Rp2750
(dp2751
g7
g18
sg9
g19
sbag1
(g2
g3
Ntp2752
Rp2753
(dp2754
g7
g18
sg9
g19
sbag1
(g2
g3
Ntp2755
Rp2756
(dp2757
g7
g18
sg9
g19
sbag1
(g2
g3
Ntp2758
Rp2759
(dp2760
g7
g18
sg9
g19
sbag1
(g2
g3
Ntp2761
Rp2762
(dp2763
g7
g18
sg9
g19
sbag1
(g2
g3
Ntp2764
Rp2765
(dp2766
g7
g18
sg9
g19
sbag1
(g2
g3
Ntp2767
Rp2768
(dp2769
g7
g18
sg9
g19
sbag1
(g2
g3
Ntp2770
Rp2771
(dp2772
g7
g18
sg9
g19
sbag1
(g2
g3
Ntp2773
Rp2774
(dp2775
g7
g18
sg9
g19
sbag1
(g2
g3
Ntp2776
Rp2777
(dp2778
g7
g18
sg9
g19
sbag1
(g2
g3
Ntp2779
Rp2780
(dp2781
g7
g18
sg9
g19
sbag1
(g2
g3
Ntp2782
Rp2783
(dp2784
g7
S'ret'
p2785
sg9
g24
sbag1
(g2
g3
Ntp2786
Rp2787
(dp2788
g7
g130
sg9
g29
sbag1
(g2
g3
Ntp2789
Rp2790
(dp2791
g7
g1975
sg9
g24
sbag1
(g2
g3
Ntp2792
Rp2793
(dp2794
g7
g134
sg9
g29
sbag1
(g2
g3
Ntp2795
Rp2796
(dp2797
g7
g18
sg9
g19
sbag1
(g2
g3
Ntp2798
Rp2799
(dp2800
g7
g458
sg9
g459
sbag1
(g2
g3
Ntp2801
Rp2802
(dp2803
g7
g18
sg9
g19
sbag1
(g2
g3
Ntp2804
Rp2805
(dp2806
g7
g181
sg9
g29
sbag1
(g2
g3
Ntp2807
Rp2808
(dp2809
g7
S'char'
p2810
sg9
g14
sbag1
(g2
g3
Ntp2811
Rp2812
(dp2813
g7
g185
sg9
g29
sbag1
(g2
g3
Ntp2814
Rp2815
(dp2816
g7
g18
sg9
g19
sbag1
(g2
g3
Ntp2817
Rp2818
(dp2819
g7
g181
sg9
g29
sbag1
(g2
g3
Ntp2820
Rp2821
(dp2822
g7
g2618
sg9
g24
sbag1
(g2
g3
Ntp2823
Rp2824
(dp2825
g7
g18
sg9
g19
sbag1
(g2
g3
Ntp2826
Rp2827
(dp2828
g7
g752
sg9
g459
sbag1
(g2
g3
Ntp2829
Rp2830
(dp2831
g7
g18
sg9
g19
sbag1
(g2
g3
Ntp2832
Rp2833
(dp2834
g7
S"'0'"
p2835
sg9
g481
sbag1
(g2
g3
Ntp2836
Rp2837
(dp2838
g7
g185
sg9
g29
sbag1
(g2
g3
Ntp2839
Rp2840
(dp2841
g7
g37
sg9
g29
sbag1
(g2
g3
Ntp2842
Rp2843
(dp2844
g7
g41
sg9
g19
sbag1
(g2
g3
Ntp2845
Rp2846
(dp2847
g7
g18
sg9
g19
sbag1
(g2
g3
Ntp2848
Rp2849
(dp2850
g7
g18
sg9
g19
sbag1
(g2
g3
Ntp2851
Rp2852
(dp2853
g7
g18
sg9
g19
sbag1
(g2
g3
Ntp2854
Rp2855
(dp2856
g7
g18
sg9
g19
sbag1
(g2
g3
Ntp2857
Rp2858
(dp2859
g7
g18
sg9
g19
sbag1
(g2
g3
Ntp2860
Rp2861
(dp2862
g7
g18
sg9
g19
sbag1
(g2
g3
Ntp2863
Rp2864
(dp2865
g7
g18
sg9
g19
sbag1
(g2
g3
Ntp2866
Rp2867
(dp2868
g7
g18
sg9
g19
sbag1
(g2
g3
Ntp2869
Rp2870
(dp2871
g7
g18
sg9
g19
sbag1
(g2
g3
Ntp2872
Rp2873
(dp2874
g7
g18
sg9
g19
sbag1
(g2
g3
Ntp2875
Rp2876
(dp2877
g7
g18
sg9
g19
sbag1
(g2
g3
Ntp2878
Rp2879
(dp2880
g7
g18
sg9
g19
sbag1
(g2
g3
Ntp2881
Rp2882
(dp2883
g7
g18
sg9
g19
sbag1
(g2
g3
Ntp2884
Rp2885
(dp2886
g7
g18
sg9
g19
sbag1
(g2
g3
Ntp2887
Rp2888
(dp2889
g7
g18
sg9
g19
sbag1
(g2
g3
Ntp2890
Rp2891
(dp2892
g7
g18
sg9
g19
sbag1
(g2
g3
Ntp2893
Rp2894
(dp2895
g7
g1975
sg9
g24
sbag1
(g2
g3
Ntp2896
Rp2897
(dp2898
g7
g18
sg9
g19
sbag1
(g2
g3
Ntp2899
Rp2900
(dp2901
g7
g458
sg9
g459
sbag1
(g2
g3
Ntp2902
Rp2903
(dp2904
g7
g18
sg9
g19
sbag1
(g2
g3
Ntp2905
Rp2906
(dp2907
g7
g1975
sg9
g24
sbag1
(g2
g3
Ntp2908
Rp2909
(dp2910
g7
g18
sg9
g19
sbag1
(g2
g3
Ntp2911
Rp2912
(dp2913
g7
g752
sg9
g459
sbag1
(g2
g3
Ntp2914
Rp2915
(dp2916
g7
g18
sg9
g19
sbag1
(g2
g3
Ntp2917
Rp2918
(dp2919
g7
g759
sg9
g481
sbag1
(g2
g3
Ntp2920
Rp2921
(dp2922
g7
g37
sg9
g29
sbag1
(g2
g3
Ntp2923
Rp2924
(dp2925
g7
g41
sg9
g19
sbag1
(g2
g3
Ntp2926
Rp2927
(dp2928
g7
g18
sg9
g19
sbag1
(g2
g3
Ntp2929
Rp2930
(dp2931
g7
g18
sg9
g19
sbag1
(g2
g3
Ntp2932
Rp2933
(dp2934
g7
g18
sg9
g19
sbag1
(g2
g3
Ntp2935
Rp2936
(dp2937
g7
g18
sg9
g19
sbag1
(g2
g3
Ntp2938
Rp2939
(dp2940
g7
g18
sg9
g19
sbag1
(g2
g3
Ntp2941
Rp2942
(dp2943
g7
g18
sg9
g19
sbag1
(g2
g3
Ntp2944
Rp2945
(dp2946
g7
g18
sg9
g19
sbag1
(g2
g3
Ntp2947
Rp2948
(dp2949
g7
g18
sg9
g19
sbag1
(g2
g3
Ntp2950
Rp2951
(dp2952
g7
g18
sg9
g19
sbag1
(g2
g3
Ntp2953
Rp2954
(dp2955
g7
g18
sg9
g19
sbag1
(g2
g3
Ntp2956
Rp2957
(dp2958
g7
g18
sg9
g19
sbag1
(g2
g3
Ntp2959
Rp2960
(dp2961
g7
g18
sg9
g19
sbag1
(g2
g3
Ntp2962
Rp2963
(dp2964
g7
g258
sg9
g29
sbag1
(g2
g3
Ntp2965
Rp2966
(dp2967
g7
g41
sg9
g19
sbag1
(g2
g3
Ntp2968
Rp2969
(dp2970
g7
g18
sg9
g19
sbag1
(g2
g3
Ntp2971
Rp2972
(dp2973
g7
g18
sg9
g19
sbag1
(g2
g3
Ntp2974
Rp2975
(dp2976
g7
g18
sg9
g19
sbag1
(g2
g3
Ntp2977
Rp2978
(dp2979
g7
g18
sg9
g19
sbag1
(g2
g3
Ntp2980
Rp2981
(dp2982
g7
g18
sg9
g19
sbag1
(g2
g3
Ntp2983
Rp2984
(dp2985
g7
g18
sg9
g19
sbag1
(g2
g3
Ntp2986
Rp2987
(dp2988
g7
g18
sg9
g19
sbag1
(g2
g3
Ntp2989
Rp2990
(dp2991
g7
g18
sg9
g19
sbag1
(g2
g3
Ntp2992
Rp2993
(dp2994
g7
g258
sg9
g29
sbag1
(g2
g3
Ntp2995
Rp2996
(dp2997
g7
g41
sg9
g19
sbag1
(g2
g3
Ntp2998
Rp2999
(dp3000
g7
g18
sg9
g19
sbag1
(g2
g3
Ntp3001
Rp3002
(dp3003
g7
g18
sg9
g19
sbag1
(g2
g3
Ntp3004
Rp3005
(dp3006
g7
g18
sg9
g19
sbag1
(g2
g3
Ntp3007
Rp3008
(dp3009
g7
g18
sg9
g19
sbag1
(g2
g3
Ntp3010
Rp3011
(dp3012
g7
g18
sg9
g19
sbag1
(g2
g3
Ntp3013
Rp3014
(dp3015
g7
g18
sg9
g19
sbag1
(g2
g3
Ntp3016
Rp3017
(dp3018
g7
g18
sg9
g19
sbag1
(g2
g3
Ntp3019
Rp3020
(dp3021
g7
g18
sg9
g19
sbag1
(g2
g3
Ntp3022
Rp3023
(dp3024
g7
S'if'
p3025
sg9
g14
sbag1
(g2
g3
Ntp3026
Rp3027
(dp3028
g7
g181
sg9
g29
sbag1
(g2
g3
Ntp3029
Rp3030
(dp3031
g7
S'wasneg'
p3032
sg9
g24
sbag1
(g2
g3
Ntp3033
Rp3034
(dp3035
g7
g185
sg9
g29
sbag1
(g2
g3
Ntp3036
Rp3037
(dp3038
g7
g18
sg9
g19
sbag1
(g2
g3
Ntp3039
Rp3040
(dp3041
g7
g100
sg9
g29
sbag1
(g2
g3
Ntp3042
Rp3043
(dp3044
g7
g41
sg9
g19
sbag1
(g2
g3
Ntp3045
Rp3046
(dp3047
g7
g18
sg9
g19
sbag1
(g2
g3
Ntp3048
Rp3049
(dp3050
g7
g18
sg9
g19
sbag1
(g2
g3
Ntp3051
Rp3052
(dp3053
g7
g18
sg9
g19
sbag1
(g2
g3
Ntp3054
Rp3055
(dp3056
g7
g18
sg9
g19
sbag1
(g2
g3
Ntp3057
Rp3058
(dp3059
g7
g18
sg9
g19
sbag1
(g2
g3
Ntp3060
Rp3061
(dp3062
g7
g18
sg9
g19
sbag1
(g2
g3
Ntp3063
Rp3064
(dp3065
g7
g18
sg9
g19
sbag1
(g2
g3
Ntp3066
Rp3067
(dp3068
g7
g18
sg9
g19
sbag1
(g2
g3
Ntp3069
Rp3070
(dp3071
g7
g18
sg9
g19
sbag1
(g2
g3
Ntp3072
Rp3073
(dp3074
g7
g18
sg9
g19
sbag1
(g2
g3
Ntp3075
Rp3076
(dp3077
g7
g18
sg9
g19
sbag1
(g2
g3
Ntp3078
Rp3079
(dp3080
g7
g18
sg9
g19
sbag1
(g2
g3
Ntp3081
Rp3082
(dp3083
g7
S'ret'
p3084
sg9
g24
sbag1
(g2
g3
Ntp3085
Rp3086
(dp3087
g7
g130
sg9
g29
sbag1
(g2
g3
Ntp3088
Rp3089
(dp3090
g7
g1975
sg9
g24
sbag1
(g2
g3
Ntp3091
Rp3092
(dp3093
g7
g134
sg9
g29
sbag1
(g2
g3
Ntp3094
Rp3095
(dp3096
g7
g18
sg9
g19
sbag1
(g2
g3
Ntp3097
Rp3098
(dp3099
g7
g458
sg9
g459
sbag1
(g2
g3
Ntp3100
Rp3101
(dp3102
g7
g18
sg9
g19
sbag1
(g2
g3
Ntp3103
Rp3104
(dp3105
g7
S"'-'"
p3106
sg9
g481
sbag1
(g2
g3
Ntp3107
Rp3108
(dp3109
g7
g37
sg9
g29
sbag1
(g2
g3
Ntp3110
Rp3111
(dp3112
g7
g41
sg9
g19
sbag1
(g2
g3
Ntp3113
Rp3114
(dp3115
g7
g18
sg9
g19
sbag1
(g2
g3
Ntp3116
Rp3117
(dp3118
g7
g18
sg9
g19
sbag1
(g2
g3
Ntp3119
Rp3120
(dp3121
g7
g18
sg9
g19
sbag1
(g2
g3
Ntp3122
Rp3123
(dp3124
g7
g18
sg9
g19
sbag1
(g2
g3
Ntp3125
Rp3126
(dp3127
g7
g18
sg9
g19
sbag1
(g2
g3
Ntp3128
Rp3129
(dp3130
g7
g18
sg9
g19
sbag1
(g2
g3
Ntp3131
Rp3132
(dp3133
g7
g18
sg9
g19
sbag1
(g2
g3
Ntp3134
Rp3135
(dp3136
g7
g18
sg9
g19
sbag1
(g2
g3
Ntp3137
Rp3138
(dp3139
g7
g18
sg9
g19
sbag1
(g2
g3
Ntp3140
Rp3141
(dp3142
g7
g18
sg9
g19
sbag1
(g2
g3
Ntp3143
Rp3144
(dp3145
g7
g18
sg9
g19
sbag1
(g2
g3
Ntp3146
Rp3147
(dp3148
g7
g18
sg9
g19
sbag1
(g2
g3
Ntp3149
Rp3150
(dp3151
g7
g1975
sg9
g24
sbag1
(g2
g3
Ntp3152
Rp3153
(dp3154
g7
g18
sg9
g19
sbag1
(g2
g3
Ntp3155
Rp3156
(dp3157
g7
g458
sg9
g459
sbag1
(g2
g3
Ntp3158
Rp3159
(dp3160
g7
g18
sg9
g19
sbag1
(g2
g3
Ntp3161
Rp3162
(dp3163
g7
g1975
sg9
g24
sbag1
(g2
g3
Ntp3164
Rp3165
(dp3166
g7
g18
sg9
g19
sbag1
(g2
g3
Ntp3167
Rp3168
(dp3169
g7
g752
sg9
g459
sbag1
(g2
g3
Ntp3170
Rp3171
(dp3172
g7
g18
sg9
g19
sbag1
(g2
g3
Ntp3173
Rp3174
(dp3175
g7
g759
sg9
g481
sbag1
(g2
g3
Ntp3176
Rp3177
(dp3178
g7
g37
sg9
g29
sbag1
(g2
g3
Ntp3179
Rp3180
(dp3181
g7
g41
sg9
g19
sbag1
(g2
g3
Ntp3182
Rp3183
(dp3184
g7
g18
sg9
g19
sbag1
(g2
g3
Ntp3185
Rp3186
(dp3187
g7
g18
sg9
g19
sbag1
(g2
g3
Ntp3188
Rp3189
(dp3190
g7
g18
sg9
g19
sbag1
(g2
g3
Ntp3191
Rp3192
(dp3193
g7
g18
sg9
g19
sbag1
(g2
g3
Ntp3194
Rp3195
(dp3196
g7
g18
sg9
g19
sbag1
(g2
g3
Ntp3197
Rp3198
(dp3199
g7
g18
sg9
g19
sbag1
(g2
g3
Ntp3200
Rp3201
(dp3202
g7
g18
sg9
g19
sbag1
(g2
g3
Ntp3203
Rp3204
(dp3205
g7
g18
sg9
g19
sbag1
(g2
g3
Ntp3206
Rp3207
(dp3208
g7
g258
sg9
g29
sbag1
(g2
g3
Ntp3209
Rp3210
(dp3211
g7
g41
sg9
g19
sbag1
(g2
g3
Ntp3212
Rp3213
(dp3214
g7
g18
sg9
g19
sbag1
(g2
g3
Ntp3215
Rp3216
(dp3217
g7
g18
sg9
g19
sbag1
(g2
g3
Ntp3218
Rp3219
(dp3220
g7
g18
sg9
g19
sbag1
(g2
g3
Ntp3221
Rp3222
(dp3223
g7
g18
sg9
g19
sbag1
(g2
g3
Ntp3224
Rp3225
(dp3226
g7
g18
sg9
g19
sbag1
(g2
g3
Ntp3227
Rp3228
(dp3229
g7
g18
sg9
g19
sbag1
(g2
g3
Ntp3230
Rp3231
(dp3232
g7
g18
sg9
g19
sbag1
(g2
g3
Ntp3233
Rp3234
(dp3235
g7
g18
sg9
g19
sbag1
(g2
g3
Ntp3236
Rp3237
(dp3238
g7
S'char'
p3239
sg9
g14
sbag1
(g2
g3
Ntp3240
Rp3241
(dp3242
g7
g130
sg9
g29
sbag1
(g2
g3
Ntp3243
Rp3244
(dp3245
g7
g134
sg9
g29
sbag1
(g2
g3
Ntp3246
Rp3247
(dp3248
g7
g18
sg9
g19
sbag1
(g2
g3
Ntp3249
Rp3250
(dp3251
g7
S'ret2'
p3252
sg9
g24
sbag1
(g2
g3
Ntp3253
Rp3254
(dp3255
g7
g18
sg9
g19
sbag1
(g2
g3
Ntp3256
Rp3257
(dp3258
g7
g458
sg9
g459
sbag1
(g2
g3
Ntp3259
Rp3260
(dp3261
g7
g18
sg9
g19
sbag1
(g2
g3
Ntp3262
Rp3263
(dp3264
g7
S'new'
p3265
sg9
g14
sbag1
(g2
g3
Ntp3266
Rp3267
(dp3268
g7
g18
sg9
g19
sbag1
(g2
g3
Ntp3269
Rp3270
(dp3271
g7
S'char'
p3272
sg9
g14
sbag1
(g2
g3
Ntp3273
Rp3274
(dp3275
g7
g130
sg9
g29
sbag1
(g2
g3
Ntp3276
Rp3277
(dp3278
g7
g1975
sg9
g24
sbag1
(g2
g3
Ntp3279
Rp3280
(dp3281
g7
g134
sg9
g29
sbag1
(g2
g3
Ntp3282
Rp3283
(dp3284
g7
g37
sg9
g29
sbag1
(g2
g3
Ntp3285
Rp3286
(dp3287
g7
g41
sg9
g19
sbag1
(g2
g3
Ntp3288
Rp3289
(dp3290
g7
g18
sg9
g19
sbag1
(g2
g3
Ntp3291
Rp3292
(dp3293
g7
g18
sg9
g19
sbag1
(g2
g3
Ntp3294
Rp3295
(dp3296
g7
g18
sg9
g19
sbag1
(g2
g3
Ntp3297
Rp3298
(dp3299
g7
g18
sg9
g19
sbag1
(g2
g3
Ntp3300
Rp3301
(dp3302
g7
g18
sg9
g19
sbag1
(g2
g3
Ntp3303
Rp3304
(dp3305
g7
g18
sg9
g19
sbag1
(g2
g3
Ntp3306
Rp3307
(dp3308
g7
g18
sg9
g19
sbag1
(g2
g3
Ntp3309
Rp3310
(dp3311
g7
g18
sg9
g19
sbag1
(g2
g3
Ntp3312
Rp3313
(dp3314
g7
S'for'
p3315
sg9
g14
sbag1
(g2
g3
Ntp3316
Rp3317
(dp3318
g7
g181
sg9
g29
sbag1
(g2
g3
Ntp3319
Rp3320
(dp3321
g7
g305
sg9
g24
sbag1
(g2
g3
Ntp3322
Rp3323
(dp3324
g7
g18
sg9
g19
sbag1
(g2
g3
Ntp3325
Rp3326
(dp3327
g7
g458
sg9
g459
sbag1
(g2
g3
Ntp3328
Rp3329
(dp3330
g7
g18
sg9
g19
sbag1
(g2
g3
Ntp3331
Rp3332
(dp3333
g7
g480
sg9
g481
sbag1
(g2
g3
Ntp3334
Rp3335
(dp3336
g7
g37
sg9
g29
sbag1
(g2
g3
Ntp3337
Rp3338
(dp3339
g7
g18
sg9
g19
sbag1
(g2
g3
Ntp3340
Rp3341
(dp3342
g7
g305
sg9
g24
sbag1
(g2
g3
Ntp3343
Rp3344
(dp3345
g7
g18
sg9
g19
sbag1
(g2
g3
Ntp3346
Rp3347
(dp3348
g7
g710
sg9
g459
sbag1
(g2
g3
Ntp3349
Rp3350
(dp3351
g7
g18
sg9
g19
sbag1
(g2
g3
Ntp3352
Rp3353
(dp3354
g7
g1975
sg9
g24
sbag1
(g2
g3
Ntp3355
Rp3356
(dp3357
g7
g37
sg9
g29
sbag1
(g2
g3
Ntp3358
Rp3359
(dp3360
g7
g18
sg9
g19
sbag1
(g2
g3
Ntp3361
Rp3362
(dp3363
g7
g305
sg9
g24
sbag1
(g2
g3
Ntp3364
Rp3365
(dp3366
g7
g18
sg9
g19
sbag1
(g2
g3
Ntp3367
Rp3368
(dp3369
g7
g458
sg9
g459
sbag1
(g2
g3
Ntp3370
Rp3371
(dp3372
g7
g18
sg9
g19
sbag1
(g2
g3
Ntp3373
Rp3374
(dp3375
g7
g305
sg9
g24
sbag1
(g2
g3
Ntp3376
Rp3377
(dp3378
g7
g18
sg9
g19
sbag1
(g2
g3
Ntp3379
Rp3380
(dp3381
g7
g752
sg9
g459
sbag1
(g2
g3
Ntp3382
Rp3383
(dp3384
g7
g18
sg9
g19
sbag1
(g2
g3
Ntp3385
Rp3386
(dp3387
g7
g759
sg9
g481
sbag1
(g2
g3
Ntp3388
Rp3389
(dp3390
g7
g185
sg9
g29
sbag1
(g2
g3
Ntp3391
Rp3392
(dp3393
g7
g18
sg9
g19
sbag1
(g2
g3
Ntp3394
Rp3395
(dp3396
g7
S'ret2'
p3397
sg9
g24
sbag1
(g2
g3
Ntp3398
Rp3399
(dp3400
g7
g130
sg9
g29
sbag1
(g2
g3
Ntp3401
Rp3402
(dp3403
g7
g305
sg9
g24
sbag1
(g2
g3
Ntp3404
Rp3405
(dp3406
g7
g134
sg9
g29
sbag1
(g2
g3
Ntp3407
Rp3408
(dp3409
g7
g18
sg9
g19
sbag1
(g2
g3
Ntp3410
Rp3411
(dp3412
g7
g458
sg9
g459
sbag1
(g2
g3
Ntp3413
Rp3414
(dp3415
g7
g18
sg9
g19
sbag1
(g2
g3
Ntp3416
Rp3417
(dp3418
g7
S'ret'
p3419
sg9
g24
sbag1
(g2
g3
Ntp3420
Rp3421
(dp3422
g7
g130
sg9
g29
sbag1
(g2
g3
Ntp3423
Rp3424
(dp3425
g7
g1975
sg9
g24
sbag1
(g2
g3
Ntp3426
Rp3427
(dp3428
g7
g2210
sg9
g459
sbag1
(g2
g3
Ntp3429
Rp3430
(dp3431
g7
g759
sg9
g481
sbag1
(g2
g3
Ntp3432
Rp3433
(dp3434
g7
g2210
sg9
g459
sbag1
(g2
g3
Ntp3435
Rp3436
(dp3437
g7
g305
sg9
g24
sbag1
(g2
g3
Ntp3438
Rp3439
(dp3440
g7
g134
sg9
g29
sbag1
(g2
g3
Ntp3441
Rp3442
(dp3443
g7
g37
sg9
g29
sbag1
(g2
g3
Ntp3444
Rp3445
(dp3446
g7
g41
sg9
g19
sbag1
(g2
g3
Ntp3447
Rp3448
(dp3449
g7
g18
sg9
g19
sbag1
(g2
g3
Ntp3450
Rp3451
(dp3452
g7
g18
sg9
g19
sbag1
(g2
g3
Ntp3453
Rp3454
(dp3455
g7
g18
sg9
g19
sbag1
(g2
g3
Ntp3456
Rp3457
(dp3458
g7
g18
sg9
g19
sbag1
(g2
g3
Ntp3459
Rp3460
(dp3461
g7
g18
sg9
g19
sbag1
(g2
g3
Ntp3462
Rp3463
(dp3464
g7
g18
sg9
g19
sbag1
(g2
g3
Ntp3465
Rp3466
(dp3467
g7
g18
sg9
g19
sbag1
(g2
g3
Ntp3468
Rp3469
(dp3470
g7
g18
sg9
g19
sbag1
(g2
g3
Ntp3471
Rp3472
(dp3473
g7
S'return'
p3474
sg9
g14
sbag1
(g2
g3
Ntp3475
Rp3476
(dp3477
g7
g18
sg9
g19
sbag1
(g2
g3
Ntp3478
Rp3479
(dp3480
g7
S'new'
p3481
sg9
g14
sbag1
(g2
g3
Ntp3482
Rp3483
(dp3484
g7
g18
sg9
g19
sbag1
(g2
g3
Ntp3485
Rp3486
(dp3487
g7
S'String'
p3488
sg9
g24
sbag1
(g2
g3
Ntp3489
Rp3490
(dp3491
g7
g181
sg9
g29
sbag1
(g2
g3
Ntp3492
Rp3493
(dp3494
g7
S'ret2'
p3495
sg9
g24
sbag1
(g2
g3
Ntp3496
Rp3497
(dp3498
g7
g185
sg9
g29
sbag1
(g2
g3
Ntp3499
Rp3500
(dp3501
g7
g37
sg9
g29
sbag1
(g2
g3
Ntp3502
Rp3503
(dp3504
g7
g41
sg9
g19
sbag1
(g2
g3
Ntp3505
Rp3506
(dp3507
g7
g18
sg9
g19
sbag1
(g2
g3
Ntp3508
Rp3509
(dp3510
g7
g18
sg9
g19
sbag1
(g2
g3
Ntp3511
Rp3512
(dp3513
g7
g18
sg9
g19
sbag1
(g2
g3
Ntp3514
Rp3515
(dp3516
g7
g18
sg9
g19
sbag1
(g2
g3
Ntp3517
Rp3518
(dp3519
g7
g258
sg9
g29
sbag1
(g2
g3
Ntp3520
Rp3521
(dp3522
g7
g41
sg9
g19
sbag1
(g2
g3
Ntp3523
Rp3524
(dp3525
g7
g18
sg9
g19
sbag1
(g2
g3
Ntp3526
Rp3527
(dp3528
g7
g18
sg9
g19
sbag1
(g2
g3
Ntp3529
Rp3530
(dp3531
g7
g18
sg9
g19
sbag1
(g2
g3
Ntp3532
Rp3533
(dp3534
g7
g18
sg9
g19
sbag1
(g2
g3
Ntp3535
Rp3536
(dp3537
g7
S'public'
p3538
sg9
g14
sbag1
(g2
g3
Ntp3539
Rp3540
(dp3541
g7
g18
sg9
g19
sbag1
(g2
g3
Ntp3542
Rp3543
(dp3544
g7
S'static'
p3545
sg9
g14
sbag1
(g2
g3
Ntp3546
Rp3547
(dp3548
g7
g18
sg9
g19
sbag1
(g2
g3
Ntp3549
Rp3550
(dp3551
g7
S'String'
p3552
sg9
g24
sbag1
(g2
g3
Ntp3553
Rp3554
(dp3555
g7
g18
sg9
g19
sbag1
(g2
g3
Ntp3556
Rp3557
(dp3558
g7
S'valueOf'
p3559
sg9
g24
sbag1
(g2
g3
Ntp3560
Rp3561
(dp3562
g7
g181
sg9
g29
sbag1
(g2
g3
Ntp3563
Rp3564
(dp3565
g7
S'short'
p3566
sg9
g14
sbag1
(g2
g3
Ntp3567
Rp3568
(dp3569
g7
g18
sg9
g19
sbag1
(g2
g3
Ntp3570
Rp3571
(dp3572
g7
g305
sg9
g24
sbag1
(g2
g3
Ntp3573
Rp3574
(dp3575
g7
g185
sg9
g29
sbag1
(g2
g3
Ntp3576
Rp3577
(dp3578
g7
g18
sg9
g19
sbag1
(g2
g3
Ntp3579
Rp3580
(dp3581
g7
g100
sg9
g29
sbag1
(g2
g3
Ntp3582
Rp3583
(dp3584
g7
g41
sg9
g19
sbag1
(g2
g3
Ntp3585
Rp3586
(dp3587
g7
g18
sg9
g19
sbag1
(g2
g3
Ntp3588
Rp3589
(dp3590
g7
g18
sg9
g19
sbag1
(g2
g3
Ntp3591
Rp3592
(dp3593
g7
g18
sg9
g19
sbag1
(g2
g3
Ntp3594
Rp3595
(dp3596
g7
g18
sg9
g19
sbag1
(g2
g3
Ntp3597
Rp3598
(dp3599
g7
g18
sg9
g19
sbag1
(g2
g3
Ntp3600
Rp3601
(dp3602
g7
g18
sg9
g19
sbag1
(g2
g3
Ntp3603
Rp3604
(dp3605
g7
g18
sg9
g19
sbag1
(g2
g3
Ntp3606
Rp3607
(dp3608
g7
g18
sg9
g19
sbag1
(g2
g3
Ntp3609
Rp3610
(dp3611
g7
S'return'
p3612
sg9
g14
sbag1
(g2
g3
Ntp3613
Rp3614
(dp3615
g7
g18
sg9
g19
sbag1
(g2
g3
Ntp3616
Rp3617
(dp3618
g7
S'String'
p3619
sg9
g24
sbag1
(g2
g3
Ntp3620
Rp3621
(dp3622
g7
g28
sg9
g29
sbag1
(g2
g3
Ntp3623
Rp3624
(dp3625
g7
S'valueOf'
p3626
sg9
g24
sbag1
(g2
g3
Ntp3627
Rp3628
(dp3629
g7
g181
sg9
g29
sbag1
(g2
g3
Ntp3630
Rp3631
(dp3632
g7
g181
sg9
g29
sbag1
(g2
g3
Ntp3633
Rp3634
(dp3635
g7
S'int'
p3636
sg9
g14
sbag1
(g2
g3
Ntp3637
Rp3638
(dp3639
g7
g185
sg9
g29
sbag1
(g2
g3
Ntp3640
Rp3641
(dp3642
g7
g18
sg9
g19
sbag1
(g2
g3
Ntp3643
Rp3644
(dp3645
g7
g305
sg9
g24
sbag1
(g2
g3
Ntp3646
Rp3647
(dp3648
g7
g185
sg9
g29
sbag1
(g2
g3
Ntp3649
Rp3650
(dp3651
g7
g37
sg9
g29
sbag1
(g2
g3
Ntp3652
Rp3653
(dp3654
g7
g41
sg9
g19
sbag1
(g2
g3
Ntp3655
Rp3656
(dp3657
g7
g18
sg9
g19
sbag1
(g2
g3
Ntp3658
Rp3659
(dp3660
g7
g18
sg9
g19
sbag1
(g2
g3
Ntp3661
Rp3662
(dp3663
g7
g18
sg9
g19
sbag1
(g2
g3
Ntp3664
Rp3665
(dp3666
g7
g18
sg9
g19
sbag1
(g2
g3
Ntp3667
Rp3668
(dp3669
g7
g258
sg9
g29
sbag1
(g2
g3
Ntp3670
Rp3671
(dp3672
g7
g41
sg9
g19
sbag1
(g2
g3
Ntp3673
Rp3674
(dp3675
g7
g18
sg9
g19
sbag1
(g2
g3
Ntp3676
Rp3677
(dp3678
g7
g18
sg9
g19
sbag1
(g2
g3
Ntp3679
Rp3680
(dp3681
g7
g18
sg9
g19
sbag1
(g2
g3
Ntp3682
Rp3683
(dp3684
g7
g18
sg9
g19
sbag1
(g2
g3
Ntp3685
Rp3686
(dp3687
g7
S'public'
p3688
sg9
g14
sbag1
(g2
g3
Ntp3689
Rp3690
(dp3691
g7
g18
sg9
g19
sbag1
(g2
g3
Ntp3692
Rp3693
(dp3694
g7
S'static'
p3695
sg9
g14
sbag1
(g2
g3
Ntp3696
Rp3697
(dp3698
g7
g18
sg9
g19
sbag1
(g2
g3
Ntp3699
Rp3700
(dp3701
g7
S'String'
p3702
sg9
g24
sbag1
(g2
g3
Ntp3703
Rp3704
(dp3705
g7
g18
sg9
g19
sbag1
(g2
g3
Ntp3706
Rp3707
(dp3708
g7
S'valueOf'
p3709
sg9
g24
sbag1
(g2
g3
Ntp3710
Rp3711
(dp3712
g7
g181
sg9
g29
sbag1
(g2
g3
Ntp3713
Rp3714
(dp3715
g7
S'byte'
p3716
sg9
g14
sbag1
(g2
g3
Ntp3717
Rp3718
(dp3719
g7
g18
sg9
g19
sbag1
(g2
g3
Ntp3720
Rp3721
(dp3722
g7
g305
sg9
g24
sbag1
(g2
g3
Ntp3723
Rp3724
(dp3725
g7
g185
sg9
g29
sbag1
(g2
g3
Ntp3726
Rp3727
(dp3728
g7
g18
sg9
g19
sbag1
(g2
g3
Ntp3729
Rp3730
(dp3731
g7
g100
sg9
g29
sbag1
(g2
g3
Ntp3732
Rp3733
(dp3734
g7
g41
sg9
g19
sbag1
(g2
g3
Ntp3735
Rp3736
(dp3737
g7
g18
sg9
g19
sbag1
(g2
g3
Ntp3738
Rp3739
(dp3740
g7
g18
sg9
g19
sbag1
(g2
g3
Ntp3741
Rp3742
(dp3743
g7
g18
sg9
g19
sbag1
(g2
g3
Ntp3744
Rp3745
(dp3746
g7
g18
sg9
g19
sbag1
(g2
g3
Ntp3747
Rp3748
(dp3749
g7
g18
sg9
g19
sbag1
(g2
g3
Ntp3750
Rp3751
(dp3752
g7
g18
sg9
g19
sbag1
(g2
g3
Ntp3753
Rp3754
(dp3755
g7
g18
sg9
g19
sbag1
(g2
g3
Ntp3756
Rp3757
(dp3758
g7
g18
sg9
g19
sbag1
(g2
g3
Ntp3759
Rp3760
(dp3761
g7
S'return'
p3762
sg9
g14
sbag1
(g2
g3
Ntp3763
Rp3764
(dp3765
g7
g18
sg9
g19
sbag1
(g2
g3
Ntp3766
Rp3767
(dp3768
g7
S'String'
p3769
sg9
g24
sbag1
(g2
g3
Ntp3770
Rp3771
(dp3772
g7
g28
sg9
g29
sbag1
(g2
g3
Ntp3773
Rp3774
(dp3775
g7
S'valueOf'
p3776
sg9
g24
sbag1
(g2
g3
Ntp3777
Rp3778
(dp3779
g7
g181
sg9
g29
sbag1
(g2
g3
Ntp3780
Rp3781
(dp3782
g7
g181
sg9
g29
sbag1
(g2
g3
Ntp3783
Rp3784
(dp3785
g7
S'int'
p3786
sg9
g14
sbag1
(g2
g3
Ntp3787
Rp3788
(dp3789
g7
g185
sg9
g29
sbag1
(g2
g3
Ntp3790
Rp3791
(dp3792
g7
g18
sg9
g19
sbag1
(g2
g3
Ntp3793
Rp3794
(dp3795
g7
g305
sg9
g24
sbag1
(g2
g3
Ntp3796
Rp3797
(dp3798
g7
g185
sg9
g29
sbag1
(g2
g3
Ntp3799
Rp3800
(dp3801
g7
g37
sg9
g29
sbag1
(g2
g3
Ntp3802
Rp3803
(dp3804
g7
g41
sg9
g19
sbag1
(g2
g3
Ntp3805
Rp3806
(dp3807
g7
g18
sg9
g19
sbag1
(g2
g3
Ntp3808
Rp3809
(dp3810
g7
g18
sg9
g19
sbag1
(g2
g3
Ntp3811
Rp3812
(dp3813
g7
g18
sg9
g19
sbag1
(g2
g3
Ntp3814
Rp3815
(dp3816
g7
g18
sg9
g19
sbag1
(g2
g3
Ntp3817
Rp3818
(dp3819
g7
g258
sg9
g29
sbag1
(g2
g3
Ntp3820
Rp3821
(dp3822
g7
g41
sg9
g19
sbag1
(g2
g3
Ntp3823
Rp3824
(dp3825
g7
g18
sg9
g19
sbag1
(g2
g3
Ntp3826
Rp3827
(dp3828
g7
g18
sg9
g19
sbag1
(g2
g3
Ntp3829
Rp3830
(dp3831
g7
g18
sg9
g19
sbag1
(g2
g3
Ntp3832
Rp3833
(dp3834
g7
g18
sg9
g19
sbag1
(g2
g3
Ntp3835
Rp3836
(dp3837
g7
S'public'
p3838
sg9
g14
sbag1
(g2
g3
Ntp3839
Rp3840
(dp3841
g7
g18
sg9
g19
sbag1
(g2
g3
Ntp3842
Rp3843
(dp3844
g7
S'static'
p3845
sg9
g14
sbag1
(g2
g3
Ntp3846
Rp3847
(dp3848
g7
g18
sg9
g19
sbag1
(g2
g3
Ntp3849
Rp3850
(dp3851
g7
S'String'
p3852
sg9
g24
sbag1
(g2
g3
Ntp3853
Rp3854
(dp3855
g7
g18
sg9
g19
sbag1
(g2
g3
Ntp3856
Rp3857
(dp3858
g7
S'valueOf'
p3859
sg9
g24
sbag1
(g2
g3
Ntp3860
Rp3861
(dp3862
g7
g181
sg9
g29
sbag1
(g2
g3
Ntp3863
Rp3864
(dp3865
g7
S'boolean'
p3866
sg9
g14
sbag1
(g2
g3
Ntp3867
Rp3868
(dp3869
g7
g18
sg9
g19
sbag1
(g2
g3
Ntp3870
Rp3871
(dp3872
g7
S'b'
p3873
sg9
g24
sbag1
(g2
g3
Ntp3874
Rp3875
(dp3876
g7
g185
sg9
g29
sbag1
(g2
g3
Ntp3877
Rp3878
(dp3879
g7
g18
sg9
g19
sbag1
(g2
g3
Ntp3880
Rp3881
(dp3882
g7
g100
sg9
g29
sbag1
(g2
g3
Ntp3883
Rp3884
(dp3885
g7
g41
sg9
g19
sbag1
(g2
g3
Ntp3886
Rp3887
(dp3888
g7
g18
sg9
g19
sbag1
(g2
g3
Ntp3889
Rp3890
(dp3891
g7
g18
sg9
g19
sbag1
(g2
g3
Ntp3892
Rp3893
(dp3894
g7
g18
sg9
g19
sbag1
(g2
g3
Ntp3895
Rp3896
(dp3897
g7
g18
sg9
g19
sbag1
(g2
g3
Ntp3898
Rp3899
(dp3900
g7
g18
sg9
g19
sbag1
(g2
g3
Ntp3901
Rp3902
(dp3903
g7
g18
sg9
g19
sbag1
(g2
g3
Ntp3904
Rp3905
(dp3906
g7
g18
sg9
g19
sbag1
(g2
g3
Ntp3907
Rp3908
(dp3909
g7
g18
sg9
g19
sbag1
(g2
g3
Ntp3910
Rp3911
(dp3912
g7
S'if'
p3913
sg9
g14
sbag1
(g2
g3
Ntp3914
Rp3915
(dp3916
g7
g181
sg9
g29
sbag1
(g2
g3
Ntp3917
Rp3918
(dp3919
g7
g3873
sg9
g24
sbag1
(g2
g3
Ntp3920
Rp3921
(dp3922
g7
g185
sg9
g29
sbag1
(g2
g3
Ntp3923
Rp3924
(dp3925
g7
g18
sg9
g19
sbag1
(g2
g3
Ntp3926
Rp3927
(dp3928
g7
S'return'
p3929
sg9
g14
sbag1
(g2
g3
Ntp3930
Rp3931
(dp3932
g7
g18
sg9
g19
sbag1
(g2
g3
Ntp3933
Rp3934
(dp3935
g7
S'"true"'
p3936
sg9
g481
sbag1
(g2
g3
Ntp3937
Rp3938
(dp3939
g7
g37
sg9
g29
sbag1
(g2
g3
Ntp3940
Rp3941
(dp3942
g7
g18
sg9
g19
sbag1
(g2
g3
Ntp3943
Rp3944
(dp3945
g7
S'else'
p3946
sg9
g14
sbag1
(g2
g3
Ntp3947
Rp3948
(dp3949
g7
g18
sg9
g19
sbag1
(g2
g3
Ntp3950
Rp3951
(dp3952
g7
S'return'
p3953
sg9
g14
sbag1
(g2
g3
Ntp3954
Rp3955
(dp3956
g7
g18
sg9
g19
sbag1
(g2
g3
Ntp3957
Rp3958
(dp3959
g7
S'"false"'
p3960
sg9
g481
sbag1
(g2
g3
Ntp3961
Rp3962
(dp3963
g7
g37
sg9
g29
sbag1
(g2
g3
Ntp3964
Rp3965
(dp3966
g7
g41
sg9
g19
sbag1
(g2
g3
Ntp3967
Rp3968
(dp3969
g7
g18
sg9
g19
sbag1
(g2
g3
Ntp3970
Rp3971
(dp3972
g7
g18
sg9
g19
sbag1
(g2
g3
Ntp3973
Rp3974
(dp3975
g7
g18
sg9
g19
sbag1
(g2
g3
Ntp3976
Rp3977
(dp3978
g7
g18
sg9
g19
sbag1
(g2
g3
Ntp3979
Rp3980
(dp3981
g7
g258
sg9
g29
sbag1
(g2
g3
Ntp3982
Rp3983
(dp3984
g7
g41
sg9
g19
sbag1
(g2
g3
Ntp3985
Rp3986
(dp3987
g7
g18
sg9
g19
sbag1
(g2
g3
Ntp3988
Rp3989
(dp3990
g7
g18
sg9
g19
sbag1
(g2
g3
Ntp3991
Rp3992
(dp3993
g7
g18
sg9
g19
sbag1
(g2
g3
Ntp3994
Rp3995
(dp3996
g7
g18
sg9
g19
sbag1
(g2
g3
Ntp3997
Rp3998
(dp3999
g7
S'public'
p4000
sg9
g14
sbag1
(g2
g3
Ntp4001
Rp4002
(dp4003
g7
g18
sg9
g19
sbag1
(g2
g3
Ntp4004
Rp4005
(dp4006
g7
S'static'
p4007
sg9
g14
sbag1
(g2
g3
Ntp4008
Rp4009
(dp4010
g7
g18
sg9
g19
sbag1
(g2
g3
Ntp4011
Rp4012
(dp4013
g7
S'String'
p4014
sg9
g24
sbag1
(g2
g3
Ntp4015
Rp4016
(dp4017
g7
g18
sg9
g19
sbag1
(g2
g3
Ntp4018
Rp4019
(dp4020
g7
S'valueOf'
p4021
sg9
g24
sbag1
(g2
g3
Ntp4022
Rp4023
(dp4024
g7
g181
sg9
g29
sbag1
(g2
g3
Ntp4025
Rp4026
(dp4027
g7
S'Object'
p4028
sg9
g24
sbag1
(g2
g3
Ntp4029
Rp4030
(dp4031
g7
g18
sg9
g19
sbag1
(g2
g3
Ntp4032
Rp4033
(dp4034
g7
S'o'
p4035
sg9
g24
sbag1
(g2
g3
Ntp4036
Rp4037
(dp4038
g7
g185
sg9
g29
sbag1
(g2
g3
Ntp4039
Rp4040
(dp4041
g7
g18
sg9
g19
sbag1
(g2
g3
Ntp4042
Rp4043
(dp4044
g7
g100
sg9
g29
sbag1
(g2
g3
Ntp4045
Rp4046
(dp4047
g7
g41
sg9
g19
sbag1
(g2
g3
Ntp4048
Rp4049
(dp4050
g7
g18
sg9
g19
sbag1
(g2
g3
Ntp4051
Rp4052
(dp4053
g7
g18
sg9
g19
sbag1
(g2
g3
Ntp4054
Rp4055
(dp4056
g7
g18
sg9
g19
sbag1
(g2
g3
Ntp4057
Rp4058
(dp4059
g7
g18
sg9
g19
sbag1
(g2
g3
Ntp4060
Rp4061
(dp4062
g7
g18
sg9
g19
sbag1
(g2
g3
Ntp4063
Rp4064
(dp4065
g7
g18
sg9
g19
sbag1
(g2
g3
Ntp4066
Rp4067
(dp4068
g7
g18
sg9
g19
sbag1
(g2
g3
Ntp4069
Rp4070
(dp4071
g7
g18
sg9
g19
sbag1
(g2
g3
Ntp4072
Rp4073
(dp4074
g7
S'if'
p4075
sg9
g14
sbag1
(g2
g3
Ntp4076
Rp4077
(dp4078
g7
g181
sg9
g29
sbag1
(g2
g3
Ntp4079
Rp4080
(dp4081
g7
g4035
sg9
g24
sbag1
(g2
g3
Ntp4082
Rp4083
(dp4084
g7
g18
sg9
g19
sbag1
(g2
g3
Ntp4085
Rp4086
(dp4087
g7
S'=='
p4088
sg9
g459
sbag1
(g2
g3
Ntp4089
Rp4090
(dp4091
g7
g18
sg9
g19
sbag1
(g2
g3
Ntp4092
Rp4093
(dp4094
g7
S'null'
p4095
sg9
g481
sbag1
(g2
g3
Ntp4096
Rp4097
(dp4098
g7
g185
sg9
g29
sbag1
(g2
g3
Ntp4099
Rp4100
(dp4101
g7
g18
sg9
g19
sbag1
(g2
g3
Ntp4102
Rp4103
(dp4104
g7
g18
sg9
g19
sbag1
(g2
g3
Ntp4105
Rp4106
(dp4107
g7
S'return'
p4108
sg9
g14
sbag1
(g2
g3
Ntp4109
Rp4110
(dp4111
g7
g18
sg9
g19
sbag1
(g2
g3
Ntp4112
Rp4113
(dp4114
g7
S'"null"'
p4115
sg9
g481
sbag1
(g2
g3
Ntp4116
Rp4117
(dp4118
g7
g37
sg9
g29
sbag1
(g2
g3
Ntp4119
Rp4120
(dp4121
g7
g18
sg9
g19
sbag1
(g2
g3
Ntp4122
Rp4123
(dp4124
g7
S'else'
p4125
sg9
g14
sbag1
(g2
g3
Ntp4126
Rp4127
(dp4128
g7
g18
sg9
g19
sbag1
(g2
g3
Ntp4129
Rp4130
(dp4131
g7
S'return'
p4132
sg9
g14
sbag1
(g2
g3
Ntp4133
Rp4134
(dp4135
g7
g18
sg9
g19
sbag1
(g2
g3
Ntp4136
Rp4137
(dp4138
g7
g4035
sg9
g24
sbag1
(g2
g3
Ntp4139
Rp4140
(dp4141
g7
g28
sg9
g29
sbag1
(g2
g3
Ntp4142
Rp4143
(dp4144
g7
S'toString'
p4145
sg9
g24
sbag1
(g2
g3
Ntp4146
Rp4147
(dp4148
g7
g181
sg9
g29
sbag1
(g2
g3
Ntp4149
Rp4150
(dp4151
g7
g185
sg9
g29
sbag1
(g2
g3
Ntp4152
Rp4153
(dp4154
g7
g37
sg9
g29
sbag1
(g2
g3
Ntp4155
Rp4156
(dp4157
g7
g41
sg9
g19
sbag1
(g2
g3
Ntp4158
Rp4159
(dp4160
g7
g18
sg9
g19
sbag1
(g2
g3
Ntp4161
Rp4162
(dp4163
g7
g18
sg9
g19
sbag1
(g2
g3
Ntp4164
Rp4165
(dp4166
g7
g18
sg9
g19
sbag1
(g2
g3
Ntp4167
Rp4168
(dp4169
g7
g18
sg9
g19
sbag1
(g2
g3
Ntp4170
Rp4171
(dp4172
g7
g258
sg9
g29
sbag1
(g2
g3
Ntp4173
Rp4174
(dp4175
g7
g41
sg9
g19
sbag1
(g2
g3
Ntp4176
Rp4177
(dp4178
g7
g18
sg9
g19
sbag1
(g2
g3
Ntp4179
Rp4180
(dp4181
g7
g18
sg9
g19
sbag1
(g2
g3
Ntp4182
Rp4183
(dp4184
g7
g18
sg9
g19
sbag1
(g2
g3
Ntp4185
Rp4186
(dp4187
g7
g18
sg9
g19
sbag1
(g2
g3
Ntp4188
Rp4189
(dp4190
g7
S'public'
p4191
sg9
g14
sbag1
(g2
g3
Ntp4192
Rp4193
(dp4194
g7
g18
sg9
g19
sbag1
(g2
g3
Ntp4195
Rp4196
(dp4197
g7
S'static'
p4198
sg9
g14
sbag1
(g2
g3
Ntp4199
Rp4200
(dp4201
g7
g18
sg9
g19
sbag1
(g2
g3
Ntp4202
Rp4203
(dp4204
g7
S'String'
p4205
sg9
g24
sbag1
(g2
g3
Ntp4206
Rp4207
(dp4208
g7
g18
sg9
g19
sbag1
(g2
g3
Ntp4209
Rp4210
(dp4211
g7
S'valueOf'
p4212
sg9
g24
sbag1
(g2
g3
Ntp4213
Rp4214
(dp4215
g7
g181
sg9
g29
sbag1
(g2
g3
Ntp4216
Rp4217
(dp4218
g7
S'String'
p4219
sg9
g24
sbag1
(g2
g3
Ntp4220
Rp4221
(dp4222
g7
g18
sg9
g19
sbag1
(g2
g3
Ntp4223
Rp4224
(dp4225
g7
g4035
sg9
g24
sbag1
(g2
g3
Ntp4226
Rp4227
(dp4228
g7
g185
sg9
g29
sbag1
(g2
g3
Ntp4229
Rp4230
(dp4231
g7
g18
sg9
g19
sbag1
(g2
g3
Ntp4232
Rp4233
(dp4234
g7
g100
sg9
g29
sbag1
(g2
g3
Ntp4235
Rp4236
(dp4237
g7
g41
sg9
g19
sbag1
(g2
g3
Ntp4238
Rp4239
(dp4240
g7
g18
sg9
g19
sbag1
(g2
g3
Ntp4241
Rp4242
(dp4243
g7
g18
sg9
g19
sbag1
(g2
g3
Ntp4244
Rp4245
(dp4246
g7
g18
sg9
g19
sbag1
(g2
g3
Ntp4247
Rp4248
(dp4249
g7
g18
sg9
g19
sbag1
(g2
g3
Ntp4250
Rp4251
(dp4252
g7
g18
sg9
g19
sbag1
(g2
g3
Ntp4253
Rp4254
(dp4255
g7
g18
sg9
g19
sbag1
(g2
g3
Ntp4256
Rp4257
(dp4258
g7
g18
sg9
g19
sbag1
(g2
g3
Ntp4259
Rp4260
(dp4261
g7
g18
sg9
g19
sbag1
(g2
g3
Ntp4262
Rp4263
(dp4264
g7
S'if'
p4265
sg9
g14
sbag1
(g2
g3
Ntp4266
Rp4267
(dp4268
g7
g181
sg9
g29
sbag1
(g2
g3
Ntp4269
Rp4270
(dp4271
g7
g4035
sg9
g24
sbag1
(g2
g3
Ntp4272
Rp4273
(dp4274
g7
g18
sg9
g19
sbag1
(g2
g3
Ntp4275
Rp4276
(dp4277
g7
S'=='
p4278
sg9
g459
sbag1
(g2
g3
Ntp4279
Rp4280
(dp4281
g7
g18
sg9
g19
sbag1
(g2
g3
Ntp4282
Rp4283
(dp4284
g7
S'null'
p4285
sg9
g481
sbag1
(g2
g3
Ntp4286
Rp4287
(dp4288
g7
g185
sg9
g29
sbag1
(g2
g3
Ntp4289
Rp4290
(dp4291
g7
g18
sg9
g19
sbag1
(g2
g3
Ntp4292
Rp4293
(dp4294
g7
g18
sg9
g19
sbag1
(g2
g3
Ntp4295
Rp4296
(dp4297
g7
S'return'
p4298
sg9
g14
sbag1
(g2
g3
Ntp4299
Rp4300
(dp4301
g7
g18
sg9
g19
sbag1
(g2
g3
Ntp4302
Rp4303
(dp4304
g7
S'"null"'
p4305
sg9
g481
sbag1
(g2
g3
Ntp4306
Rp4307
(dp4308
g7
g37
sg9
g29
sbag1
(g2
g3
Ntp4309
Rp4310
(dp4311
g7
g18
sg9
g19
sbag1
(g2
g3
Ntp4312
Rp4313
(dp4314
g7
S'else'
p4315
sg9
g14
sbag1
(g2
g3
Ntp4316
Rp4317
(dp4318
g7
g18
sg9
g19
sbag1
(g2
g3
Ntp4319
Rp4320
(dp4321
g7
S'return'
p4322
sg9
g14
sbag1
(g2
g3
Ntp4323
Rp4324
(dp4325
g7
g18
sg9
g19
sbag1
(g2
g3
Ntp4326
Rp4327
(dp4328
g7
g4035
sg9
g24
sbag1
(g2
g3
Ntp4329
Rp4330
(dp4331
g7
g37
sg9
g29
sbag1
(g2
g3
Ntp4332
Rp4333
(dp4334
g7
g41
sg9
g19
sbag1
(g2
g3
Ntp4335
Rp4336
(dp4337
g7
g18
sg9
g19
sbag1
(g2
g3
Ntp4338
Rp4339
(dp4340
g7
g18
sg9
g19
sbag1
(g2
g3
Ntp4341
Rp4342
(dp4343
g7
g18
sg9
g19
sbag1
(g2
g3
Ntp4344
Rp4345
(dp4346
g7
g18
sg9
g19
sbag1
(g2
g3
Ntp4347
Rp4348
(dp4349
g7
g258
sg9
g29
sbag1
(g2
g3
Ntp4350
Rp4351
(dp4352
g7
g41
sg9
g19
sbag1
(g2
g3
Ntp4353
Rp4354
(dp4355
g7
g18
sg9
g19
sbag1
(g2
g3
Ntp4356
Rp4357
(dp4358
g7
g18
sg9
g19
sbag1
(g2
g3
Ntp4359
Rp4360
(dp4361
g7
g18
sg9
g19
sbag1
(g2
g3
Ntp4362
Rp4363
(dp4364
g7
g18
sg9
g19
sbag1
(g2
g3
Ntp4365
Rp4366
(dp4367
g7
S'public'
p4368
sg9
g14
sbag1
(g2
g3
Ntp4369
Rp4370
(dp4371
g7
g18
sg9
g19
sbag1
(g2
g3
Ntp4372
Rp4373
(dp4374
g7
S'boolean'
p4375
sg9
g14
sbag1
(g2
g3
Ntp4376
Rp4377
(dp4378
g7
g18
sg9
g19
sbag1
(g2
g3
Ntp4379
Rp4380
(dp4381
g7
S'equals'
p4382
sg9
g24
sbag1
(g2
g3
Ntp4383
Rp4384
(dp4385
g7
g181
sg9
g29
sbag1
(g2
g3
Ntp4386
Rp4387
(dp4388
g7
S'Object'
p4389
sg9
g24
sbag1
(g2
g3
Ntp4390
Rp4391
(dp4392
g7
g18
sg9
g19
sbag1
(g2
g3
Ntp4393
Rp4394
(dp4395
g7
g4035
sg9
g24
sbag1
(g2
g3
Ntp4396
Rp4397
(dp4398
g7
g185
sg9
g29
sbag1
(g2
g3
Ntp4399
Rp4400
(dp4401
g7
g18
sg9
g19
sbag1
(g2
g3
Ntp4402
Rp4403
(dp4404
g7
g100
sg9
g29
sbag1
(g2
g3
Ntp4405
Rp4406
(dp4407
g7
g41
sg9
g19
sbag1
(g2
g3
Ntp4408
Rp4409
(dp4410
g7
g18
sg9
g19
sbag1
(g2
g3
Ntp4411
Rp4412
(dp4413
g7
g18
sg9
g19
sbag1
(g2
g3
Ntp4414
Rp4415
(dp4416
g7
g18
sg9
g19
sbag1
(g2
g3
Ntp4417
Rp4418
(dp4419
g7
g18
sg9
g19
sbag1
(g2
g3
Ntp4420
Rp4421
(dp4422
g7
g18
sg9
g19
sbag1
(g2
g3
Ntp4423
Rp4424
(dp4425
g7
g18
sg9
g19
sbag1
(g2
g3
Ntp4426
Rp4427
(dp4428
g7
g18
sg9
g19
sbag1
(g2
g3
Ntp4429
Rp4430
(dp4431
g7
g18
sg9
g19
sbag1
(g2
g3
Ntp4432
Rp4433
(dp4434
g7
S'if'
p4435
sg9
g14
sbag1
(g2
g3
Ntp4436
Rp4437
(dp4438
g7
g181
sg9
g29
sbag1
(g2
g3
Ntp4439
Rp4440
(dp4441
g7
g4035
sg9
g24
sbag1
(g2
g3
Ntp4442
Rp4443
(dp4444
g7
g18
sg9
g19
sbag1
(g2
g3
Ntp4445
Rp4446
(dp4447
g7
S'=='
p4448
sg9
g459
sbag1
(g2
g3
Ntp4449
Rp4450
(dp4451
g7
g18
sg9
g19
sbag1
(g2
g3
Ntp4452
Rp4453
(dp4454
g7
S'null'
p4455
sg9
g481
sbag1
(g2
g3
Ntp4456
Rp4457
(dp4458
g7
g185
sg9
g29
sbag1
(g2
g3
Ntp4459
Rp4460
(dp4461
g7
g18
sg9
g19
sbag1
(g2
g3
Ntp4462
Rp4463
(dp4464
g7
S'return'
p4465
sg9
g14
sbag1
(g2
g3
Ntp4466
Rp4467
(dp4468
g7
g18
sg9
g19
sbag1
(g2
g3
Ntp4469
Rp4470
(dp4471
g7
S'false'
p4472
sg9
g481
sbag1
(g2
g3
Ntp4473
Rp4474
(dp4475
g7
g37
sg9
g29
sbag1
(g2
g3
Ntp4476
Rp4477
(dp4478
g7
g41
sg9
g19
sbag1
(g2
g3
Ntp4479
Rp4480
(dp4481
g7
g18
sg9
g19
sbag1
(g2
g3
Ntp4482
Rp4483
(dp4484
g7
g18
sg9
g19
sbag1
(g2
g3
Ntp4485
Rp4486
(dp4487
g7
g18
sg9
g19
sbag1
(g2
g3
Ntp4488
Rp4489
(dp4490
g7
g18
sg9
g19
sbag1
(g2
g3
Ntp4491
Rp4492
(dp4493
g7
g18
sg9
g19
sbag1
(g2
g3
Ntp4494
Rp4495
(dp4496
g7
g18
sg9
g19
sbag1
(g2
g3
Ntp4497
Rp4498
(dp4499
g7
g18
sg9
g19
sbag1
(g2
g3
Ntp4500
Rp4501
(dp4502
g7
g18
sg9
g19
sbag1
(g2
g3
Ntp4503
Rp4504
(dp4505
g7
S'if'
p4506
sg9
g14
sbag1
(g2
g3
Ntp4507
Rp4508
(dp4509
g7
g181
sg9
g29
sbag1
(g2
g3
Ntp4510
Rp4511
(dp4512
g7
S'!'
p4513
sg9
g459
sbag1
(g2
g3
Ntp4514
Rp4515
(dp4516
g7
g181
sg9
g29
sbag1
(g2
g3
Ntp4517
Rp4518
(dp4519
g7
g4035
sg9
g24
sbag1
(g2
g3
Ntp4520
Rp4521
(dp4522
g7
g18
sg9
g19
sbag1
(g2
g3
Ntp4523
Rp4524
(dp4525
g7
S'instanceof'
p4526
sg9
g14
sbag1
(g2
g3
Ntp4527
Rp4528
(dp4529
g7
g18
sg9
g19
sbag1
(g2
g3
Ntp4530
Rp4531
(dp4532
g7
S'String'
p4533
sg9
g24
sbag1
(g2
g3
Ntp4534
Rp4535
(dp4536
g7
g185
sg9
g29
sbag1
(g2
g3
Ntp4537
Rp4538
(dp4539
g7
g185
sg9
g29
sbag1
(g2
g3
Ntp4540
Rp4541
(dp4542
g7
g18
sg9
g19
sbag1
(g2
g3
Ntp4543
Rp4544
(dp4545
g7
S'return'
p4546
sg9
g14
sbag1
(g2
g3
Ntp4547
Rp4548
(dp4549
g7
g18
sg9
g19
sbag1
(g2
g3
Ntp4550
Rp4551
(dp4552
g7
S'false'
p4553
sg9
g481
sbag1
(g2
g3
Ntp4554
Rp4555
(dp4556
g7
g37
sg9
g29
sbag1
(g2
g3
Ntp4557
Rp4558
(dp4559
g7
g41
sg9
g19
sbag1
(g2
g3
Ntp4560
Rp4561
(dp4562
g7
g18
sg9
g19
sbag1
(g2
g3
Ntp4563
Rp4564
(dp4565
g7
g18
sg9
g19
sbag1
(g2
g3
Ntp4566
Rp4567
(dp4568
g7
g18
sg9
g19
sbag1
(g2
g3
Ntp4569
Rp4570
(dp4571
g7
g18
sg9
g19
sbag1
(g2
g3
Ntp4572
Rp4573
(dp4574
g7
g18
sg9
g19
sbag1
(g2
g3
Ntp4575
Rp4576
(dp4577
g7
g18
sg9
g19
sbag1
(g2
g3
Ntp4578
Rp4579
(dp4580
g7
g18
sg9
g19
sbag1
(g2
g3
Ntp4581
Rp4582
(dp4583
g7
g18
sg9
g19
sbag1
(g2
g3
Ntp4584
Rp4585
(dp4586
g7
S'return'
p4587
sg9
g14
sbag1
(g2
g3
Ntp4588
Rp4589
(dp4590
g7
g18
sg9
g19
sbag1
(g2
g3
Ntp4591
Rp4592
(dp4593
g7
S'Arrays'
p4594
sg9
g24
sbag1
(g2
g3
Ntp4595
Rp4596
(dp4597
g7
g28
sg9
g29
sbag1
(g2
g3
Ntp4598
Rp4599
(dp4600
g7
S'equals'
p4601
sg9
g24
sbag1
(g2
g3
Ntp4602
Rp4603
(dp4604
g7
g181
sg9
g29
sbag1
(g2
g3
Ntp4605
Rp4606
(dp4607
g7
S'chars'
p4608
sg9
g24
sbag1
(g2
g3
Ntp4609
Rp4610
(dp4611
g7
S','
p4612
sg9
g29
sbag1
(g2
g3
Ntp4613
Rp4614
(dp4615
g7
g18
sg9
g19
sbag1
(g2
g3
Ntp4616
Rp4617
(dp4618
g7
g181
sg9
g29
sbag1
(g2
g3
Ntp4619
Rp4620
(dp4621
g7
g181
sg9
g29
sbag1
(g2
g3
Ntp4622
Rp4623
(dp4624
g7
S'String'
p4625
sg9
g24
sbag1
(g2
g3
Ntp4626
Rp4627
(dp4628
g7
g185
sg9
g29
sbag1
(g2
g3
Ntp4629
Rp4630
(dp4631
g7
g4035
sg9
g24
sbag1
(g2
g3
Ntp4632
Rp4633
(dp4634
g7
g185
sg9
g29
sbag1
(g2
g3
Ntp4635
Rp4636
(dp4637
g7
g28
sg9
g29
sbag1
(g2
g3
Ntp4638
Rp4639
(dp4640
g7
S'chars'
p4641
sg9
g24
sbag1
(g2
g3
Ntp4642
Rp4643
(dp4644
g7
g185
sg9
g29
sbag1
(g2
g3
Ntp4645
Rp4646
(dp4647
g7
g37
sg9
g29
sbag1
(g2
g3
Ntp4648
Rp4649
(dp4650
g7
g41
sg9
g19
sbag1
(g2
g3
Ntp4651
Rp4652
(dp4653
g7
g18
sg9
g19
sbag1
(g2
g3
Ntp4654
Rp4655
(dp4656
g7
g18
sg9
g19
sbag1
(g2
g3
Ntp4657
Rp4658
(dp4659
g7
g18
sg9
g19
sbag1
(g2
g3
Ntp4660
Rp4661
(dp4662
g7
g18
sg9
g19
sbag1
(g2
g3
Ntp4663
Rp4664
(dp4665
g7
g258
sg9
g29
sbag1
(g2
g3
Ntp4666
Rp4667
(dp4668
g7
g41
sg9
g19
sbag1
(g2
g3
Ntp4669
Rp4670
(dp4671
g7
g18
sg9
g19
sbag1
(g2
g3
Ntp4672
Rp4673
(dp4674
g7
g18
sg9
g19
sbag1
(g2
g3
Ntp4675
Rp4676
(dp4677
g7
g18
sg9
g19
sbag1
(g2
g3
Ntp4678
Rp4679
(dp4680
g7
g18
sg9
g19
sbag1
(g2
g3
Ntp4681
Rp4682
(dp4683
g7
S'public'
p4684
sg9
g14
sbag1
(g2
g3
Ntp4685
Rp4686
(dp4687
g7
g18
sg9
g19
sbag1
(g2
g3
Ntp4688
Rp4689
(dp4690
g7
S'String'
p4691
sg9
g24
sbag1
(g2
g3
Ntp4692
Rp4693
(dp4694
g7
g18
sg9
g19
sbag1
(g2
g3
Ntp4695
Rp4696
(dp4697
g7
S'substring'
p4698
sg9
g24
sbag1
(g2
g3
Ntp4699
Rp4700
(dp4701
g7
g181
sg9
g29
sbag1
(g2
g3
Ntp4702
Rp4703
(dp4704
g7
S'int'
p4705
sg9
g14
sbag1
(g2
g3
Ntp4706
Rp4707
(dp4708
g7
g18
sg9
g19
sbag1
(g2
g3
Ntp4709
Rp4710
(dp4711
g7
g305
sg9
g24
sbag1
(g2
g3
Ntp4712
Rp4713
(dp4714
g7
g4612
sg9
g29
sbag1
(g2
g3
Ntp4715
Rp4716
(dp4717
g7
g18
sg9
g19
sbag1
(g2
g3
Ntp4718
Rp4719
(dp4720
g7
S'int'
p4721
sg9
g14
sbag1
(g2
g3
Ntp4722
Rp4723
(dp4724
g7
g18
sg9
g19
sbag1
(g2
g3
Ntp4725
Rp4726
(dp4727
g7
g1975
sg9
g24
sbag1
(g2
g3
Ntp4728
Rp4729
(dp4730
g7
g185
sg9
g29
sbag1
(g2
g3
Ntp4731
Rp4732
(dp4733
g7
g18
sg9
g19
sbag1
(g2
g3
Ntp4734
Rp4735
(dp4736
g7
g100
sg9
g29
sbag1
(g2
g3
Ntp4737
Rp4738
(dp4739
g7
g41
sg9
g19
sbag1
(g2
g3
Ntp4740
Rp4741
(dp4742
g7
g18
sg9
g19
sbag1
(g2
g3
Ntp4743
Rp4744
(dp4745
g7
g18
sg9
g19
sbag1
(g2
g3
Ntp4746
Rp4747
(dp4748
g7
g18
sg9
g19
sbag1
(g2
g3
Ntp4749
Rp4750
(dp4751
g7
g18
sg9
g19
sbag1
(g2
g3
Ntp4752
Rp4753
(dp4754
g7
g18
sg9
g19
sbag1
(g2
g3
Ntp4755
Rp4756
(dp4757
g7
g18
sg9
g19
sbag1
(g2
g3
Ntp4758
Rp4759
(dp4760
g7
g18
sg9
g19
sbag1
(g2
g3
Ntp4761
Rp4762
(dp4763
g7
g18
sg9
g19
sbag1
(g2
g3
Ntp4764
Rp4765
(dp4766
g7
S'int'
p4767
sg9
g14
sbag1
(g2
g3
Ntp4768
Rp4769
(dp4770
g7
g18
sg9
g19
sbag1
(g2
g3
Ntp4771
Rp4772
(dp4773
g7
S'k'
p4774
sg9
g24
sbag1
(g2
g3
Ntp4775
Rp4776
(dp4777
g7
g18
sg9
g19
sbag1
(g2
g3
Ntp4778
Rp4779
(dp4780
g7
g458
sg9
g459
sbag1
(g2
g3
Ntp4781
Rp4782
(dp4783
g7
g18
sg9
g19
sbag1
(g2
g3
Ntp4784
Rp4785
(dp4786
g7
g480
sg9
g481
sbag1
(g2
g3
Ntp4787
Rp4788
(dp4789
g7
g37
sg9
g29
sbag1
(g2
g3
Ntp4790
Rp4791
(dp4792
g7
g41
sg9
g19
sbag1
(g2
g3
Ntp4793
Rp4794
(dp4795
g7
g18
sg9
g19
sbag1
(g2
g3
Ntp4796
Rp4797
(dp4798
g7
g18
sg9
g19
sbag1
(g2
g3
Ntp4799
Rp4800
(dp4801
g7
g18
sg9
g19
sbag1
(g2
g3
Ntp4802
Rp4803
(dp4804
g7
g18
sg9
g19
sbag1
(g2
g3
Ntp4805
Rp4806
(dp4807
g7
g18
sg9
g19
sbag1
(g2
g3
Ntp4808
Rp4809
(dp4810
g7
g18
sg9
g19
sbag1
(g2
g3
Ntp4811
Rp4812
(dp4813
g7
g18
sg9
g19
sbag1
(g2
g3
Ntp4814
Rp4815
(dp4816
g7
g18
sg9
g19
sbag1
(g2
g3
Ntp4817
Rp4818
(dp4819
g7
S'if'
p4820
sg9
g14
sbag1
(g2
g3
Ntp4821
Rp4822
(dp4823
g7
g181
sg9
g29
sbag1
(g2
g3
Ntp4824
Rp4825
(dp4826
g7
g305
sg9
g24
sbag1
(g2
g3
Ntp4827
Rp4828
(dp4829
g7
g710
sg9
g459
sbag1
(g2
g3
Ntp4830
Rp4831
(dp4832
g7
g480
sg9
g481
sbag1
(g2
g3
Ntp4833
Rp4834
(dp4835
g7
g185
sg9
g29
sbag1
(g2
g3
Ntp4836
Rp4837
(dp4838
g7
g18
sg9
g19
sbag1
(g2
g3
Ntp4839
Rp4840
(dp4841
g7
S'return'
p4842
sg9
g14
sbag1
(g2
g3
Ntp4843
Rp4844
(dp4845
g7
g18
sg9
g19
sbag1
(g2
g3
Ntp4846
Rp4847
(dp4848
g7
S'""'
p4849
sg9
g481
sbag1
(g2
g3
Ntp4850
Rp4851
(dp4852
g7
g37
sg9
g29
sbag1
(g2
g3
Ntp4853
Rp4854
(dp4855
g7
g41
sg9
g19
sbag1
(g2
g3
Ntp4856
Rp4857
(dp4858
g7
g18
sg9
g19
sbag1
(g2
g3
Ntp4859
Rp4860
(dp4861
g7
g18
sg9
g19
sbag1
(g2
g3
Ntp4862
Rp4863
(dp4864
g7
g18
sg9
g19
sbag1
(g2
g3
Ntp4865
Rp4866
(dp4867
g7
g18
sg9
g19
sbag1
(g2
g3
Ntp4868
Rp4869
(dp4870
g7
g18
sg9
g19
sbag1
(g2
g3
Ntp4871
Rp4872
(dp4873
g7
g18
sg9
g19
sbag1
(g2
g3
Ntp4874
Rp4875
(dp4876
g7
g18
sg9
g19
sbag1
(g2
g3
Ntp4877
Rp4878
(dp4879
g7
g18
sg9
g19
sbag1
(g2
g3
Ntp4880
Rp4881
(dp4882
g7
S'if'
p4883
sg9
g14
sbag1
(g2
g3
Ntp4884
Rp4885
(dp4886
g7
g181
sg9
g29
sbag1
(g2
g3
Ntp4887
Rp4888
(dp4889
g7
g1975
sg9
g24
sbag1
(g2
g3
Ntp4890
Rp4891
(dp4892
g7
g2541
sg9
g459
sbag1
(g2
g3
Ntp4893
Rp4894
(dp4895
g7
S'length'
p4896
sg9
g24
sbag1
(g2
g3
Ntp4897
Rp4898
(dp4899
g7
g181
sg9
g29
sbag1
(g2
g3
Ntp4900
Rp4901
(dp4902
g7
g185
sg9
g29
sbag1
(g2
g3
Ntp4903
Rp4904
(dp4905
g7
g185
sg9
g29
sbag1
(g2
g3
Ntp4906
Rp4907
(dp4908
g7
g18
sg9
g19
sbag1
(g2
g3
Ntp4909
Rp4910
(dp4911
g7
S'return'
p4912
sg9
g14
sbag1
(g2
g3
Ntp4913
Rp4914
(dp4915
g7
g18
sg9
g19
sbag1
(g2
g3
Ntp4916
Rp4917
(dp4918
g7
S'""'
p4919
sg9
g481
sbag1
(g2
g3
Ntp4920
Rp4921
(dp4922
g7
g37
sg9
g29
sbag1
(g2
g3
Ntp4923
Rp4924
(dp4925
g7
g41
sg9
g19
sbag1
(g2
g3
Ntp4926
Rp4927
(dp4928
g7
g18
sg9
g19
sbag1
(g2
g3
Ntp4929
Rp4930
(dp4931
g7
g18
sg9
g19
sbag1
(g2
g3
Ntp4932
Rp4933
(dp4934
g7
g18
sg9
g19
sbag1
(g2
g3
Ntp4935
Rp4936
(dp4937
g7
g18
sg9
g19
sbag1
(g2
g3
Ntp4938
Rp4939
(dp4940
g7
g18
sg9
g19
sbag1
(g2
g3
Ntp4941
Rp4942
(dp4943
g7
g18
sg9
g19
sbag1
(g2
g3
Ntp4944
Rp4945
(dp4946
g7
g18
sg9
g19
sbag1
(g2
g3
Ntp4947
Rp4948
(dp4949
g7
g18
sg9
g19
sbag1
(g2
g3
Ntp4950
Rp4951
(dp4952
g7
S'if'
p4953
sg9
g14
sbag1
(g2
g3
Ntp4954
Rp4955
(dp4956
g7
g181
sg9
g29
sbag1
(g2
g3
Ntp4957
Rp4958
(dp4959
g7
g1975
sg9
g24
sbag1
(g2
g3
Ntp4960
Rp4961
(dp4962
g7
g710
sg9
g459
sbag1
(g2
g3
Ntp4963
Rp4964
(dp4965
g7
g305
sg9
g24
sbag1
(g2
g3
Ntp4966
Rp4967
(dp4968
g7
g185
sg9
g29
sbag1
(g2
g3
Ntp4969
Rp4970
(dp4971
g7
g18
sg9
g19
sbag1
(g2
g3
Ntp4972
Rp4973
(dp4974
g7
S'return'
p4975
sg9
g14
sbag1
(g2
g3
Ntp4976
Rp4977
(dp4978
g7
g18
sg9
g19
sbag1
(g2
g3
Ntp4979
Rp4980
(dp4981
g7
S'""'
p4982
sg9
g481
sbag1
(g2
g3
Ntp4983
Rp4984
(dp4985
g7
g37
sg9
g29
sbag1
(g2
g3
Ntp4986
Rp4987
(dp4988
g7
g41
sg9
g19
sbag1
(g2
g3
Ntp4989
Rp4990
(dp4991
g7
g18
sg9
g19
sbag1
(g2
g3
Ntp4992
Rp4993
(dp4994
g7
g18
sg9
g19
sbag1
(g2
g3
Ntp4995
Rp4996
(dp4997
g7
g18
sg9
g19
sbag1
(g2
g3
Ntp4998
Rp4999
(dp5000
g7
g18
sg9
g19
sbag1
(g2
g3
Ntp5001
Rp5002
(dp5003
g7
g18
sg9
g19
sbag1
(g2
g3
Ntp5004
Rp5005
(dp5006
g7
g18
sg9
g19
sbag1
(g2
g3
Ntp5007
Rp5008
(dp5009
g7
g18
sg9
g19
sbag1
(g2
g3
Ntp5010
Rp5011
(dp5012
g7
g18
sg9
g19
sbag1
(g2
g3
Ntp5013
Rp5014
(dp5015
g7
S'char'
p5016
sg9
g14
sbag1
(g2
g3
Ntp5017
Rp5018
(dp5019
g7
g130
sg9
g29
sbag1
(g2
g3
Ntp5020
Rp5021
(dp5022
g7
g134
sg9
g29
sbag1
(g2
g3
Ntp5023
Rp5024
(dp5025
g7
g18
sg9
g19
sbag1
(g2
g3
Ntp5026
Rp5027
(dp5028
g7
S'ret'
p5029
sg9
g24
sbag1
(g2
g3
Ntp5030
Rp5031
(dp5032
g7
g18
sg9
g19
sbag1
(g2
g3
Ntp5033
Rp5034
(dp5035
g7
g458
sg9
g459
sbag1
(g2
g3
Ntp5036
Rp5037
(dp5038
g7
g18
sg9
g19
sbag1
(g2
g3
Ntp5039
Rp5040
(dp5041
g7
S'new'
p5042
sg9
g14
sbag1
(g2
g3
Ntp5043
Rp5044
(dp5045
g7
g18
sg9
g19
sbag1
(g2
g3
Ntp5046
Rp5047
(dp5048
g7
S'char'
p5049
sg9
g14
sbag1
(g2
g3
Ntp5050
Rp5051
(dp5052
g7
g130
sg9
g29
sbag1
(g2
g3
Ntp5053
Rp5054
(dp5055
g7
g1975
sg9
g24
sbag1
(g2
g3
Ntp5056
Rp5057
(dp5058
g7
g2210
sg9
g459
sbag1
(g2
g3
Ntp5059
Rp5060
(dp5061
g7
g305
sg9
g24
sbag1
(g2
g3
Ntp5062
Rp5063
(dp5064
g7
g134
sg9
g29
sbag1
(g2
g3
Ntp5065
Rp5066
(dp5067
g7
g37
sg9
g29
sbag1
(g2
g3
Ntp5068
Rp5069
(dp5070
g7
g41
sg9
g19
sbag1
(g2
g3
Ntp5071
Rp5072
(dp5073
g7
g18
sg9
g19
sbag1
(g2
g3
Ntp5074
Rp5075
(dp5076
g7
g18
sg9
g19
sbag1
(g2
g3
Ntp5077
Rp5078
(dp5079
g7
g18
sg9
g19
sbag1
(g2
g3
Ntp5080
Rp5081
(dp5082
g7
g18
sg9
g19
sbag1
(g2
g3
Ntp5083
Rp5084
(dp5085
g7
g18
sg9
g19
sbag1
(g2
g3
Ntp5086
Rp5087
(dp5088
g7
g18
sg9
g19
sbag1
(g2
g3
Ntp5089
Rp5090
(dp5091
g7
g18
sg9
g19
sbag1
(g2
g3
Ntp5092
Rp5093
(dp5094
g7
g18
sg9
g19
sbag1
(g2
g3
Ntp5095
Rp5096
(dp5097
g7
S'for'
p5098
sg9
g14
sbag1
(g2
g3
Ntp5099
Rp5100
(dp5101
g7
g181
sg9
g29
sbag1
(g2
g3
Ntp5102
Rp5103
(dp5104
g7
g4774
sg9
g24
sbag1
(g2
g3
Ntp5105
Rp5106
(dp5107
g7
g458
sg9
g459
sbag1
(g2
g3
Ntp5108
Rp5109
(dp5110
g7
g305
sg9
g24
sbag1
(g2
g3
Ntp5111
Rp5112
(dp5113
g7
g37
sg9
g29
sbag1
(g2
g3
Ntp5114
Rp5115
(dp5116
g7
g4774
sg9
g24
sbag1
(g2
g3
Ntp5117
Rp5118
(dp5119
g7
g710
sg9
g459
sbag1
(g2
g3
Ntp5120
Rp5121
(dp5122
g7
g1975
sg9
g24
sbag1
(g2
g3
Ntp5123
Rp5124
(dp5125
g7
g37
sg9
g29
sbag1
(g2
g3
Ntp5126
Rp5127
(dp5128
g7
g4774
sg9
g24
sbag1
(g2
g3
Ntp5129
Rp5130
(dp5131
g7
g458
sg9
g459
sbag1
(g2
g3
Ntp5132
Rp5133
(dp5134
g7
g4774
sg9
g24
sbag1
(g2
g3
Ntp5135
Rp5136
(dp5137
g7
g752
sg9
g459
sbag1
(g2
g3
Ntp5138
Rp5139
(dp5140
g7
g759
sg9
g481
sbag1
(g2
g3
Ntp5141
Rp5142
(dp5143
g7
g185
sg9
g29
sbag1
(g2
g3
Ntp5144
Rp5145
(dp5146
g7
g18
sg9
g19
sbag1
(g2
g3
Ntp5147
Rp5148
(dp5149
g7
S'ret'
p5150
sg9
g24
sbag1
(g2
g3
Ntp5151
Rp5152
(dp5153
g7
g130
sg9
g29
sbag1
(g2
g3
Ntp5154
Rp5155
(dp5156
g7
g4774
sg9
g24
sbag1
(g2
g3
Ntp5157
Rp5158
(dp5159
g7
g2210
sg9
g459
sbag1
(g2
g3
Ntp5160
Rp5161
(dp5162
g7
g305
sg9
g24
sbag1
(g2
g3
Ntp5163
Rp5164
(dp5165
g7
g134
sg9
g29
sbag1
(g2
g3
Ntp5166
Rp5167
(dp5168
g7
g18
sg9
g19
sbag1
(g2
g3
Ntp5169
Rp5170
(dp5171
g7
g458
sg9
g459
sbag1
(g2
g3
Ntp5172
Rp5173
(dp5174
g7
g18
sg9
g19
sbag1
(g2
g3
Ntp5175
Rp5176
(dp5177
g7
S'charAt'
p5178
sg9
g24
sbag1
(g2
g3
Ntp5179
Rp5180
(dp5181
g7
g181
sg9
g29
sbag1
(g2
g3
Ntp5182
Rp5183
(dp5184
g7
g4774
sg9
g24
sbag1
(g2
g3
Ntp5185
Rp5186
(dp5187
g7
g185
sg9
g29
sbag1
(g2
g3
Ntp5188
Rp5189
(dp5190
g7
g37
sg9
g29
sbag1
(g2
g3
Ntp5191
Rp5192
(dp5193
g7
g41
sg9
g19
sbag1
(g2
g3
Ntp5194
Rp5195
(dp5196
g7
g18
sg9
g19
sbag1
(g2
g3
Ntp5197
Rp5198
(dp5199
g7
g18
sg9
g19
sbag1
(g2
g3
Ntp5200
Rp5201
(dp5202
g7
g18
sg9
g19
sbag1
(g2
g3
Ntp5203
Rp5204
(dp5205
g7
g18
sg9
g19
sbag1
(g2
g3
Ntp5206
Rp5207
(dp5208
g7
g18
sg9
g19
sbag1
(g2
g3
Ntp5209
Rp5210
(dp5211
g7
g18
sg9
g19
sbag1
(g2
g3
Ntp5212
Rp5213
(dp5214
g7
g18
sg9
g19
sbag1
(g2
g3
Ntp5215
Rp5216
(dp5217
g7
g18
sg9
g19
sbag1
(g2
g3
Ntp5218
Rp5219
(dp5220
g7
S'return'
p5221
sg9
g14
sbag1
(g2
g3
Ntp5222
Rp5223
(dp5224
g7
g18
sg9
g19
sbag1
(g2
g3
Ntp5225
Rp5226
(dp5227
g7
S'new'
p5228
sg9
g14
sbag1
(g2
g3
Ntp5229
Rp5230
(dp5231
g7
g18
sg9
g19
sbag1
(g2
g3
Ntp5232
Rp5233
(dp5234
g7
S'String'
p5235
sg9
g24
sbag1
(g2
g3
Ntp5236
Rp5237
(dp5238
g7
g181
sg9
g29
sbag1
(g2
g3
Ntp5239
Rp5240
(dp5241
g7
S'ret'
p5242
sg9
g24
sbag1
(g2
g3
Ntp5243
Rp5244
(dp5245
g7
g185
sg9
g29
sbag1
(g2
g3
Ntp5246
Rp5247
(dp5248
g7
g37
sg9
g29
sbag1
(g2
g3
Ntp5249
Rp5250
(dp5251
g7
g41
sg9
g19
sbag1
(g2
g3
Ntp5252
Rp5253
(dp5254
g7
g18
sg9
g19
sbag1
(g2
g3
Ntp5255
Rp5256
(dp5257
g7
g18
sg9
g19
sbag1
(g2
g3
Ntp5258
Rp5259
(dp5260
g7
g18
sg9
g19
sbag1
(g2
g3
Ntp5261
Rp5262
(dp5263
g7
g18
sg9
g19
sbag1
(g2
g3
Ntp5264
Rp5265
(dp5266
g7
g258
sg9
g29
sbag1
(g2
g3
Ntp5267
Rp5268
(dp5269
g7
g41
sg9
g19
sbag1
(g2
g3
Ntp5270
Rp5271
(dp5272
g7
g18
sg9
g19
sbag1
(g2
g3
Ntp5273
Rp5274
(dp5275
g7
g18
sg9
g19
sbag1
(g2
g3
Ntp5276
Rp5277
(dp5278
g7
g18
sg9
g19
sbag1
(g2
g3
Ntp5279
Rp5280
(dp5281
g7
g18
sg9
g19
sbag1
(g2
g3
Ntp5282
Rp5283
(dp5284
g7
S'public'
p5285
sg9
g14
sbag1
(g2
g3
Ntp5286
Rp5287
(dp5288
g7
g18
sg9
g19
sbag1
(g2
g3
Ntp5289
Rp5290
(dp5291
g7
S'String'
p5292
sg9
g24
sbag1
(g2
g3
Ntp5293
Rp5294
(dp5295
g7
g18
sg9
g19
sbag1
(g2
g3
Ntp5296
Rp5297
(dp5298
g7
S'trim'
p5299
sg9
g24
sbag1
(g2
g3
Ntp5300
Rp5301
(dp5302
g7
g181
sg9
g29
sbag1
(g2
g3
Ntp5303
Rp5304
(dp5305
g7
g185
sg9
g29
sbag1
(g2
g3
Ntp5306
Rp5307
(dp5308
g7
g18
sg9
g19
sbag1
(g2
g3
Ntp5309
Rp5310
(dp5311
g7
g100
sg9
g29
sbag1
(g2
g3
Ntp5312
Rp5313
(dp5314
g7
g41
sg9
g19
sbag1
(g2
g3
Ntp5315
Rp5316
(dp5317
g7
g18
sg9
g19
sbag1
(g2
g3
Ntp5318
Rp5319
(dp5320
g7
g18
sg9
g19
sbag1
(g2
g3
Ntp5321
Rp5322
(dp5323
g7
g18
sg9
g19
sbag1
(g2
g3
Ntp5324
Rp5325
(dp5326
g7
g18
sg9
g19
sbag1
(g2
g3
Ntp5327
Rp5328
(dp5329
g7
g18
sg9
g19
sbag1
(g2
g3
Ntp5330
Rp5331
(dp5332
g7
g18
sg9
g19
sbag1
(g2
g3
Ntp5333
Rp5334
(dp5335
g7
g18
sg9
g19
sbag1
(g2
g3
Ntp5336
Rp5337
(dp5338
g7
g18
sg9
g19
sbag1
(g2
g3
Ntp5339
Rp5340
(dp5341
g7
S'int'
p5342
sg9
g14
sbag1
(g2
g3
Ntp5343
Rp5344
(dp5345
g7
g18
sg9
g19
sbag1
(g2
g3
Ntp5346
Rp5347
(dp5348
g7
g305
sg9
g24
sbag1
(g2
g3
Ntp5349
Rp5350
(dp5351
g7
g18
sg9
g19
sbag1
(g2
g3
Ntp5352
Rp5353
(dp5354
g7
g458
sg9
g459
sbag1
(g2
g3
Ntp5355
Rp5356
(dp5357
g7
g18
sg9
g19
sbag1
(g2
g3
Ntp5358
Rp5359
(dp5360
g7
g480
sg9
g481
sbag1
(g2
g3
Ntp5361
Rp5362
(dp5363
g7
g37
sg9
g29
sbag1
(g2
g3
Ntp5364
Rp5365
(dp5366
g7
g41
sg9
g19
sbag1
(g2
g3
Ntp5367
Rp5368
(dp5369
g7
g18
sg9
g19
sbag1
(g2
g3
Ntp5370
Rp5371
(dp5372
g7
g18
sg9
g19
sbag1
(g2
g3
Ntp5373
Rp5374
(dp5375
g7
g18
sg9
g19
sbag1
(g2
g3
Ntp5376
Rp5377
(dp5378
g7
g18
sg9
g19
sbag1
(g2
g3
Ntp5379
Rp5380
(dp5381
g7
g18
sg9
g19
sbag1
(g2
g3
Ntp5382
Rp5383
(dp5384
g7
g18
sg9
g19
sbag1
(g2
g3
Ntp5385
Rp5386
(dp5387
g7
g18
sg9
g19
sbag1
(g2
g3
Ntp5388
Rp5389
(dp5390
g7
g18
sg9
g19
sbag1
(g2
g3
Ntp5391
Rp5392
(dp5393
g7
S'int'
p5394
sg9
g14
sbag1
(g2
g3
Ntp5395
Rp5396
(dp5397
g7
g18
sg9
g19
sbag1
(g2
g3
Ntp5398
Rp5399
(dp5400
g7
g1975
sg9
g24
sbag1
(g2
g3
Ntp5401
Rp5402
(dp5403
g7
g18
sg9
g19
sbag1
(g2
g3
Ntp5404
Rp5405
(dp5406
g7
g458
sg9
g459
sbag1
(g2
g3
Ntp5407
Rp5408
(dp5409
g7
g18
sg9
g19
sbag1
(g2
g3
Ntp5410
Rp5411
(dp5412
g7
g480
sg9
g481
sbag1
(g2
g3
Ntp5413
Rp5414
(dp5415
g7
g37
sg9
g29
sbag1
(g2
g3
Ntp5416
Rp5417
(dp5418
g7
g41
sg9
g19
sbag1
(g2
g3
Ntp5419
Rp5420
(dp5421
g7
g18
sg9
g19
sbag1
(g2
g3
Ntp5422
Rp5423
(dp5424
g7
g18
sg9
g19
sbag1
(g2
g3
Ntp5425
Rp5426
(dp5427
g7
g18
sg9
g19
sbag1
(g2
g3
Ntp5428
Rp5429
(dp5430
g7
g18
sg9
g19
sbag1
(g2
g3
Ntp5431
Rp5432
(dp5433
g7
g18
sg9
g19
sbag1
(g2
g3
Ntp5434
Rp5435
(dp5436
g7
g18
sg9
g19
sbag1
(g2
g3
Ntp5437
Rp5438
(dp5439
g7
g18
sg9
g19
sbag1
(g2
g3
Ntp5440
Rp5441
(dp5442
g7
g18
sg9
g19
sbag1
(g2
g3
Ntp5443
Rp5444
(dp5445
g7
S'for'
p5446
sg9
g14
sbag1
(g2
g3
Ntp5447
Rp5448
(dp5449
g7
g181
sg9
g29
sbag1
(g2
g3
Ntp5450
Rp5451
(dp5452
g7
g305
sg9
g24
sbag1
(g2
g3
Ntp5453
Rp5454
(dp5455
g7
g458
sg9
g459
sbag1
(g2
g3
Ntp5456
Rp5457
(dp5458
g7
g480
sg9
g481
sbag1
(g2
g3
Ntp5459
Rp5460
(dp5461
g7
g37
sg9
g29
sbag1
(g2
g3
Ntp5462
Rp5463
(dp5464
g7
g305
sg9
g24
sbag1
(g2
g3
Ntp5465
Rp5466
(dp5467
g7
g710
sg9
g459
sbag1
(g2
g3
Ntp5468
Rp5469
(dp5470
g7
S'length'
p5471
sg9
g24
sbag1
(g2
g3
Ntp5472
Rp5473
(dp5474
g7
g181
sg9
g29
sbag1
(g2
g3
Ntp5475
Rp5476
(dp5477
g7
g185
sg9
g29
sbag1
(g2
g3
Ntp5478
Rp5479
(dp5480
g7
g18
sg9
g19
sbag1
(g2
g3
Ntp5481
Rp5482
(dp5483
g7
S'&&'
p5484
sg9
g459
sbag1
(g2
g3
Ntp5485
Rp5486
(dp5487
g7
g18
sg9
g19
sbag1
(g2
g3
Ntp5488
Rp5489
(dp5490
g7
S'charAt'
p5491
sg9
g24
sbag1
(g2
g3
Ntp5492
Rp5493
(dp5494
g7
g181
sg9
g29
sbag1
(g2
g3
Ntp5495
Rp5496
(dp5497
g7
g305
sg9
g24
sbag1
(g2
g3
Ntp5498
Rp5499
(dp5500
g7
g185
sg9
g29
sbag1
(g2
g3
Ntp5501
Rp5502
(dp5503
g7
S'<='
p5504
sg9
g459
sbag1
(g2
g3
Ntp5505
Rp5506
(dp5507
g7
S"' '"
p5508
sg9
g481
sbag1
(g2
g3
Ntp5509
Rp5510
(dp5511
g7
g37
sg9
g29
sbag1
(g2
g3
Ntp5512
Rp5513
(dp5514
g7
g305
sg9
g24
sbag1
(g2
g3
Ntp5515
Rp5516
(dp5517
g7
g458
sg9
g459
sbag1
(g2
g3
Ntp5518
Rp5519
(dp5520
g7
g305
sg9
g24
sbag1
(g2
g3
Ntp5521
Rp5522
(dp5523
g7
g752
sg9
g459
sbag1
(g2
g3
Ntp5524
Rp5525
(dp5526
g7
g759
sg9
g481
sbag1
(g2
g3
Ntp5527
Rp5528
(dp5529
g7
g185
sg9
g29
sbag1
(g2
g3
Ntp5530
Rp5531
(dp5532
g7
g18
sg9
g19
sbag1
(g2
g3
Ntp5533
Rp5534
(dp5535
g7
g100
sg9
g29
sbag1
(g2
g3
Ntp5536
Rp5537
(dp5538
g7
g258
sg9
g29
sbag1
(g2
g3
Ntp5539
Rp5540
(dp5541
g7
g41
sg9
g19
sbag1
(g2
g3
Ntp5542
Rp5543
(dp5544
g7
g18
sg9
g19
sbag1
(g2
g3
Ntp5545
Rp5546
(dp5547
g7
g18
sg9
g19
sbag1
(g2
g3
Ntp5548
Rp5549
(dp5550
g7
g18
sg9
g19
sbag1
(g2
g3
Ntp5551
Rp5552
(dp5553
g7
g18
sg9
g19
sbag1
(g2
g3
Ntp5554
Rp5555
(dp5556
g7
g18
sg9
g19
sbag1
(g2
g3
Ntp5557
Rp5558
(dp5559
g7
g18
sg9
g19
sbag1
(g2
g3
Ntp5560
Rp5561
(dp5562
g7
g18
sg9
g19
sbag1
(g2
g3
Ntp5563
Rp5564
(dp5565
g7
g18
sg9
g19
sbag1
(g2
g3
Ntp5566
Rp5567
(dp5568
g7
S'for'
p5569
sg9
g14
sbag1
(g2
g3
Ntp5570
Rp5571
(dp5572
g7
g181
sg9
g29
sbag1
(g2
g3
Ntp5573
Rp5574
(dp5575
g7
g1975
sg9
g24
sbag1
(g2
g3
Ntp5576
Rp5577
(dp5578
g7
g458
sg9
g459
sbag1
(g2
g3
Ntp5579
Rp5580
(dp5581
g7
S'length'
p5582
sg9
g24
sbag1
(g2
g3
Ntp5583
Rp5584
(dp5585
g7
g181
sg9
g29
sbag1
(g2
g3
Ntp5586
Rp5587
(dp5588
g7
g185
sg9
g29
sbag1
(g2
g3
Ntp5589
Rp5590
(dp5591
g7
g2210
sg9
g459
sbag1
(g2
g3
Ntp5592
Rp5593
(dp5594
g7
g759
sg9
g481
sbag1
(g2
g3
Ntp5595
Rp5596
(dp5597
g7
g37
sg9
g29
sbag1
(g2
g3
Ntp5598
Rp5599
(dp5600
g7
g1975
sg9
g24
sbag1
(g2
g3
Ntp5601
Rp5602
(dp5603
g7
S'>='
p5604
sg9
g459
sbag1
(g2
g3
Ntp5605
Rp5606
(dp5607
g7
g480
sg9
g481
sbag1
(g2
g3
Ntp5608
Rp5609
(dp5610
g7
g18
sg9
g19
sbag1
(g2
g3
Ntp5611
Rp5612
(dp5613
g7
S'&&'
p5614
sg9
g459
sbag1
(g2
g3
Ntp5615
Rp5616
(dp5617
g7
g18
sg9
g19
sbag1
(g2
g3
Ntp5618
Rp5619
(dp5620
g7
S'charAt'
p5621
sg9
g24
sbag1
(g2
g3
Ntp5622
Rp5623
(dp5624
g7
g181
sg9
g29
sbag1
(g2
g3
Ntp5625
Rp5626
(dp5627
g7
g1975
sg9
g24
sbag1
(g2
g3
Ntp5628
Rp5629
(dp5630
g7
g185
sg9
g29
sbag1
(g2
g3
Ntp5631
Rp5632
(dp5633
g7
S'<='
p5634
sg9
g459
sbag1
(g2
g3
Ntp5635
Rp5636
(dp5637
g7
S"' '"
p5638
sg9
g481
sbag1
(g2
g3
Ntp5639
Rp5640
(dp5641
g7
g37
sg9
g29
sbag1
(g2
g3
Ntp5642
Rp5643
(dp5644
g7
g1975
sg9
g24
sbag1
(g2
g3
Ntp5645
Rp5646
(dp5647
g7
g458
sg9
g459
sbag1
(g2
g3
Ntp5648
Rp5649
(dp5650
g7
g1975
sg9
g24
sbag1
(g2
g3
Ntp5651
Rp5652
(dp5653
g7
g2210
sg9
g459
sbag1
(g2
g3
Ntp5654
Rp5655
(dp5656
g7
g759
sg9
g481
sbag1
(g2
g3
Ntp5657
Rp5658
(dp5659
g7
g185
sg9
g29
sbag1
(g2
g3
Ntp5660
Rp5661
(dp5662
g7
g18
sg9
g19
sbag1
(g2
g3
Ntp5663
Rp5664
(dp5665
g7
g100
sg9
g29
sbag1
(g2
g3
Ntp5666
Rp5667
(dp5668
g7
g258
sg9
g29
sbag1
(g2
g3
Ntp5669
Rp5670
(dp5671
g7
g41
sg9
g19
sbag1
(g2
g3
Ntp5672
Rp5673
(dp5674
g7
g18
sg9
g19
sbag1
(g2
g3
Ntp5675
Rp5676
(dp5677
g7
g18
sg9
g19
sbag1
(g2
g3
Ntp5678
Rp5679
(dp5680
g7
g18
sg9
g19
sbag1
(g2
g3
Ntp5681
Rp5682
(dp5683
g7
g18
sg9
g19
sbag1
(g2
g3
Ntp5684
Rp5685
(dp5686
g7
g18
sg9
g19
sbag1
(g2
g3
Ntp5687
Rp5688
(dp5689
g7
g18
sg9
g19
sbag1
(g2
g3
Ntp5690
Rp5691
(dp5692
g7
g18
sg9
g19
sbag1
(g2
g3
Ntp5693
Rp5694
(dp5695
g7
g18
sg9
g19
sbag1
(g2
g3
Ntp5696
Rp5697
(dp5698
g7
S'if'
p5699
sg9
g14
sbag1
(g2
g3
Ntp5700
Rp5701
(dp5702
g7
g181
sg9
g29
sbag1
(g2
g3
Ntp5703
Rp5704
(dp5705
g7
g305
sg9
g24
sbag1
(g2
g3
Ntp5706
Rp5707
(dp5708
g7
g2541
sg9
g459
sbag1
(g2
g3
Ntp5709
Rp5710
(dp5711
g7
g1975
sg9
g24
sbag1
(g2
g3
Ntp5712
Rp5713
(dp5714
g7
g185
sg9
g29
sbag1
(g2
g3
Ntp5715
Rp5716
(dp5717
g7
g18
sg9
g19
sbag1
(g2
g3
Ntp5718
Rp5719
(dp5720
g7
S'return'
p5721
sg9
g14
sbag1
(g2
g3
Ntp5722
Rp5723
(dp5724
g7
g18
sg9
g19
sbag1
(g2
g3
Ntp5725
Rp5726
(dp5727
g7
S'""'
p5728
sg9
g481
sbag1
(g2
g3
Ntp5729
Rp5730
(dp5731
g7
g37
sg9
g29
sbag1
(g2
g3
Ntp5732
Rp5733
(dp5734
g7
g18
sg9
g19
sbag1
(g2
g3
Ntp5735
Rp5736
(dp5737
g7
S'else'
p5738
sg9
g14
sbag1
(g2
g3
Ntp5739
Rp5740
(dp5741
g7
g18
sg9
g19
sbag1
(g2
g3
Ntp5742
Rp5743
(dp5744
g7
S'return'
p5745
sg9
g14
sbag1
(g2
g3
Ntp5746
Rp5747
(dp5748
g7
g18
sg9
g19
sbag1
(g2
g3
Ntp5749
Rp5750
(dp5751
g7
S'substring'
p5752
sg9
g24
sbag1
(g2
g3
Ntp5753
Rp5754
(dp5755
g7
g181
sg9
g29
sbag1
(g2
g3
Ntp5756
Rp5757
(dp5758
g7
g305
sg9
g24
sbag1
(g2
g3
Ntp5759
Rp5760
(dp5761
g7
g4612
sg9
g29
sbag1
(g2
g3
Ntp5762
Rp5763
(dp5764
g7
g1975
sg9
g24
sbag1
(g2
g3
Ntp5765
Rp5766
(dp5767
g7
g752
sg9
g459
sbag1
(g2
g3
Ntp5768
Rp5769
(dp5770
g7
g759
sg9
g481
sbag1
(g2
g3
Ntp5771
Rp5772
(dp5773
g7
g185
sg9
g29
sbag1
(g2
g3
Ntp5774
Rp5775
(dp5776
g7
g37
sg9
g29
sbag1
(g2
g3
Ntp5777
Rp5778
(dp5779
g7
g41
sg9
g19
sbag1
(g2
g3
Ntp5780
Rp5781
(dp5782
g7
g18
sg9
g19
sbag1
(g2
g3
Ntp5783
Rp5784
(dp5785
g7
g18
sg9
g19
sbag1
(g2
g3
Ntp5786
Rp5787
(dp5788
g7
g18
sg9
g19
sbag1
(g2
g3
Ntp5789
Rp5790
(dp5791
g7
g18
sg9
g19
sbag1
(g2
g3
Ntp5792
Rp5793
(dp5794
g7
g258
sg9
g29
sbag1
(g2
g3
Ntp5795
Rp5796
(dp5797
g7
g41
sg9
g19
sbag1
(g2
g3
Ntp5798
Rp5799
(dp5800
g7
g18
sg9
g19
sbag1
(g2
g3
Ntp5801
Rp5802
(dp5803
g7
g18
sg9
g19
sbag1
(g2
g3
Ntp5804
Rp5805
(dp5806
g7
g18
sg9
g19
sbag1
(g2
g3
Ntp5807
Rp5808
(dp5809
g7
g18
sg9
g19
sbag1
(g2
g3
Ntp5810
Rp5811
(dp5812
g7
S'public'
p5813
sg9
g14
sbag1
(g2
g3
Ntp5814
Rp5815
(dp5816
g7
g18
sg9
g19
sbag1
(g2
g3
Ntp5817
Rp5818
(dp5819
g7
S'int'
p5820
sg9
g14
sbag1
(g2
g3
Ntp5821
Rp5822
(dp5823
g7
g18
sg9
g19
sbag1
(g2
g3
Ntp5824
Rp5825
(dp5826
g7
S'hashCode'
p5827
sg9
g24
sbag1
(g2
g3
Ntp5828
Rp5829
(dp5830
g7
g181
sg9
g29
sbag1
(g2
g3
Ntp5831
Rp5832
(dp5833
g7
g185
sg9
g29
sbag1
(g2
g3
Ntp5834
Rp5835
(dp5836
g7
g18
sg9
g19
sbag1
(g2
g3
Ntp5837
Rp5838
(dp5839
g7
g100
sg9
g29
sbag1
(g2
g3
Ntp5840
Rp5841
(dp5842
g7
g41
sg9
g19
sbag1
(g2
g3
Ntp5843
Rp5844
(dp5845
g7
g18
sg9
g19
sbag1
(g2
g3
Ntp5846
Rp5847
(dp5848
g7
g18
sg9
g19
sbag1
(g2
g3
Ntp5849
Rp5850
(dp5851
g7
g18
sg9
g19
sbag1
(g2
g3
Ntp5852
Rp5853
(dp5854
g7
g18
sg9
g19
sbag1
(g2
g3
Ntp5855
Rp5856
(dp5857
g7
g18
sg9
g19
sbag1
(g2
g3
Ntp5858
Rp5859
(dp5860
g7
g18
sg9
g19
sbag1
(g2
g3
Ntp5861
Rp5862
(dp5863
g7
g18
sg9
g19
sbag1
(g2
g3
Ntp5864
Rp5865
(dp5866
g7
g18
sg9
g19
sbag1
(g2
g3
Ntp5867
Rp5868
(dp5869
g7
S'int'
p5870
sg9
g14
sbag1
(g2
g3
Ntp5871
Rp5872
(dp5873
g7
g18
sg9
g19
sbag1
(g2
g3
Ntp5874
Rp5875
(dp5876
g7
S'h'
p5877
sg9
g24
sbag1
(g2
g3
Ntp5878
Rp5879
(dp5880
g7
g18
sg9
g19
sbag1
(g2
g3
Ntp5881
Rp5882
(dp5883
g7
g458
sg9
g459
sbag1
(g2
g3
Ntp5884
Rp5885
(dp5886
g7
g18
sg9
g19
sbag1
(g2
g3
Ntp5887
Rp5888
(dp5889
g7
g480
sg9
g481
sbag1
(g2
g3
Ntp5890
Rp5891
(dp5892
g7
g37
sg9
g29
sbag1
(g2
g3
Ntp5893
Rp5894
(dp5895
g7
g41
sg9
g19
sbag1
(g2
g3
Ntp5896
Rp5897
(dp5898
g7
g18
sg9
g19
sbag1
(g2
g3
Ntp5899
Rp5900
(dp5901
g7
g18
sg9
g19
sbag1
(g2
g3
Ntp5902
Rp5903
(dp5904
g7
g18
sg9
g19
sbag1
(g2
g3
Ntp5905
Rp5906
(dp5907
g7
g18
sg9
g19
sbag1
(g2
g3
Ntp5908
Rp5909
(dp5910
g7
g18
sg9
g19
sbag1
(g2
g3
Ntp5911
Rp5912
(dp5913
g7
g18
sg9
g19
sbag1
(g2
g3
Ntp5914
Rp5915
(dp5916
g7
g18
sg9
g19
sbag1
(g2
g3
Ntp5917
Rp5918
(dp5919
g7
g18
sg9
g19
sbag1
(g2
g3
Ntp5920
Rp5921
(dp5922
g7
S'for'
p5923
sg9
g14
sbag1
(g2
g3
Ntp5924
Rp5925
(dp5926
g7
g18
sg9
g19
sbag1
(g2
g3
Ntp5927
Rp5928
(dp5929
g7
g181
sg9
g29
sbag1
(g2
g3
Ntp5930
Rp5931
(dp5932
g7
S'int'
p5933
sg9
g14
sbag1
(g2
g3
Ntp5934
Rp5935
(dp5936
g7
g18
sg9
g19
sbag1
(g2
g3
Ntp5937
Rp5938
(dp5939
g7
g305
sg9
g24
sbag1
(g2
g3
Ntp5940
Rp5941
(dp5942
g7
g18
sg9
g19
sbag1
(g2
g3
Ntp5943
Rp5944
(dp5945
g7
g458
sg9
g459
sbag1
(g2
g3
Ntp5946
Rp5947
(dp5948
g7
g18
sg9
g19
sbag1
(g2
g3
Ntp5949
Rp5950
(dp5951
g7
g480
sg9
g481
sbag1
(g2
g3
Ntp5952
Rp5953
(dp5954
g7
g37
sg9
g29
sbag1
(g2
g3
Ntp5955
Rp5956
(dp5957
g7
g18
sg9
g19
sbag1
(g2
g3
Ntp5958
Rp5959
(dp5960
g7
g305
sg9
g24
sbag1
(g2
g3
Ntp5961
Rp5962
(dp5963
g7
g18
sg9
g19
sbag1
(g2
g3
Ntp5964
Rp5965
(dp5966
g7
g710
sg9
g459
sbag1
(g2
g3
Ntp5967
Rp5968
(dp5969
g7
g18
sg9
g19
sbag1
(g2
g3
Ntp5970
Rp5971
(dp5972
g7
S'chars'
p5973
sg9
g24
sbag1
(g2
g3
Ntp5974
Rp5975
(dp5976
g7
g28
sg9
g29
sbag1
(g2
g3
Ntp5977
Rp5978
(dp5979
g7
S'length'
p5980
sg9
g24
sbag1
(g2
g3
Ntp5981
Rp5982
(dp5983
g7
g37
sg9
g29
sbag1
(g2
g3
Ntp5984
Rp5985
(dp5986
g7
g18
sg9
g19
sbag1
(g2
g3
Ntp5987
Rp5988
(dp5989
g7
g305
sg9
g24
sbag1
(g2
g3
Ntp5990
Rp5991
(dp5992
g7
g18
sg9
g19
sbag1
(g2
g3
Ntp5993
Rp5994
(dp5995
g7
g458
sg9
g459
sbag1
(g2
g3
Ntp5996
Rp5997
(dp5998
g7
g18
sg9
g19
sbag1
(g2
g3
Ntp5999
Rp6000
(dp6001
g7
g305
sg9
g24
sbag1
(g2
g3
Ntp6002
Rp6003
(dp6004
g7
g752
sg9
g459
sbag1
(g2
g3
Ntp6005
Rp6006
(dp6007
g7
g759
sg9
g481
sbag1
(g2
g3
Ntp6008
Rp6009
(dp6010
g7
g185
sg9
g29
sbag1
(g2
g3
Ntp6011
Rp6012
(dp6013
g7
g18
sg9
g19
sbag1
(g2
g3
Ntp6014
Rp6015
(dp6016
g7
g100
sg9
g29
sbag1
(g2
g3
Ntp6017
Rp6018
(dp6019
g7
g41
sg9
g19
sbag1
(g2
g3
Ntp6020
Rp6021
(dp6022
g7
g18
sg9
g19
sbag1
(g2
g3
Ntp6023
Rp6024
(dp6025
g7
g18
sg9
g19
sbag1
(g2
g3
Ntp6026
Rp6027
(dp6028
g7
g18
sg9
g19
sbag1
(g2
g3
Ntp6029
Rp6030
(dp6031
g7
g18
sg9
g19
sbag1
(g2
g3
Ntp6032
Rp6033
(dp6034
g7
g18
sg9
g19
sbag1
(g2
g3
Ntp6035
Rp6036
(dp6037
g7
g18
sg9
g19
sbag1
(g2
g3
Ntp6038
Rp6039
(dp6040
g7
g18
sg9
g19
sbag1
(g2
g3
Ntp6041
Rp6042
(dp6043
g7
g18
sg9
g19
sbag1
(g2
g3
Ntp6044
Rp6045
(dp6046
g7
g18
sg9
g19
sbag1
(g2
g3
Ntp6047
Rp6048
(dp6049
g7
g18
sg9
g19
sbag1
(g2
g3
Ntp6050
Rp6051
(dp6052
g7
g18
sg9
g19
sbag1
(g2
g3
Ntp6053
Rp6054
(dp6055
g7
g18
sg9
g19
sbag1
(g2
g3
Ntp6056
Rp6057
(dp6058
g7
g5877
sg9
g24
sbag1
(g2
g3
Ntp6059
Rp6060
(dp6061
g7
g18
sg9
g19
sbag1
(g2
g3
Ntp6062
Rp6063
(dp6064
g7
g458
sg9
g459
sbag1
(g2
g3
Ntp6065
Rp6066
(dp6067
g7
g18
sg9
g19
sbag1
(g2
g3
Ntp6068
Rp6069
(dp6070
g7
S'31'
p6071
sg9
g481
sbag1
(g2
g3
Ntp6072
Rp6073
(dp6074
g7
S'*'
p6075
sg9
g459
sbag1
(g2
g3
Ntp6076
Rp6077
(dp6078
g7
g5877
sg9
g24
sbag1
(g2
g3
Ntp6079
Rp6080
(dp6081
g7
g18
sg9
g19
sbag1
(g2
g3
Ntp6082
Rp6083
(dp6084
g7
g752
sg9
g459
sbag1
(g2
g3
Ntp6085
Rp6086
(dp6087
g7
g18
sg9
g19
sbag1
(g2
g3
Ntp6088
Rp6089
(dp6090
g7
S'chars'
p6091
sg9
g24
sbag1
(g2
g3
Ntp6092
Rp6093
(dp6094
g7
g130
sg9
g29
sbag1
(g2
g3
Ntp6095
Rp6096
(dp6097
g7
g305
sg9
g24
sbag1
(g2
g3
Ntp6098
Rp6099
(dp6100
g7
g134
sg9
g29
sbag1
(g2
g3
Ntp6101
Rp6102
(dp6103
g7
g37
sg9
g29
sbag1
(g2
g3
Ntp6104
Rp6105
(dp6106
g7
g41
sg9
g19
sbag1
(g2
g3
Ntp6107
Rp6108
(dp6109
g7
g18
sg9
g19
sbag1
(g2
g3
Ntp6110
Rp6111
(dp6112
g7
g18
sg9
g19
sbag1
(g2
g3
Ntp6113
Rp6114
(dp6115
g7
g18
sg9
g19
sbag1
(g2
g3
Ntp6116
Rp6117
(dp6118
g7
g18
sg9
g19
sbag1
(g2
g3
Ntp6119
Rp6120
(dp6121
g7
g18
sg9
g19
sbag1
(g2
g3
Ntp6122
Rp6123
(dp6124
g7
g18
sg9
g19
sbag1
(g2
g3
Ntp6125
Rp6126
(dp6127
g7
g18
sg9
g19
sbag1
(g2
g3
Ntp6128
Rp6129
(dp6130
g7
g18
sg9
g19
sbag1
(g2
g3
Ntp6131
Rp6132
(dp6133
g7
g258
sg9
g29
sbag1
(g2
g3
Ntp6134
Rp6135
(dp6136
g7
g41
sg9
g19
sbag1
(g2
g3
Ntp6137
Rp6138
(dp6139
g7
g41
sg9
g19
sbag1
(g2
g3
Ntp6140
Rp6141
(dp6142
g7
g18
sg9
g19
sbag1
(g2
g3
Ntp6143
Rp6144
(dp6145
g7
g18
sg9
g19
sbag1
(g2
g3
Ntp6146
Rp6147
(dp6148
g7
g18
sg9
g19
sbag1
(g2
g3
Ntp6149
Rp6150
(dp6151
g7
g18
sg9
g19
sbag1
(g2
g3
Ntp6152
Rp6153
(dp6154
g7
g18
sg9
g19
sbag1
(g2
g3
Ntp6155
Rp6156
(dp6157
g7
g18
sg9
g19
sbag1
(g2
g3
Ntp6158
Rp6159
(dp6160
g7
g18
sg9
g19
sbag1
(g2
g3
Ntp6161
Rp6162
(dp6163
g7
g18
sg9
g19
sbag1
(g2
g3
Ntp6164
Rp6165
(dp6166
g7
S'return'
p6167
sg9
g14
sbag1
(g2
g3
Ntp6168
Rp6169
(dp6170
g7
g18
sg9
g19
sbag1
(g2
g3
Ntp6171
Rp6172
(dp6173
g7
g5877
sg9
g24
sbag1
(g2
g3
Ntp6174
Rp6175
(dp6176
g7
g37
sg9
g29
sbag1
(g2
g3
Ntp6177
Rp6178
(dp6179
g7
g41
sg9
g19
sbag1
(g2
g3
Ntp6180
Rp6181
(dp6182
g7
g18
sg9
g19
sbag1
(g2
g3
Ntp6183
Rp6184
(dp6185
g7
g18
sg9
g19
sbag1
(g2
g3
Ntp6186
Rp6187
(dp6188
g7
g18
sg9
g19
sbag1
(g2
g3
Ntp6189
Rp6190
(dp6191
g7
g18
sg9
g19
sbag1
(g2
g3
Ntp6192
Rp6193
(dp6194
g7
g258
sg9
g29
sbag1
(g2
g3
Ntp6195
Rp6196
(dp6197
g7
g41
sg9
g19
sbag1
(g2
g3
Ntp6198
Rp6199
(dp6200
g7
g18
sg9
g19
sbag1
(g2
g3
Ntp6201
Rp6202
(dp6203
g7
g18
sg9
g19
sbag1
(g2
g3
Ntp6204
Rp6205
(dp6206
g7
g18
sg9
g19
sbag1
(g2
g3
Ntp6207
Rp6208
(dp6209
g7
g18
sg9
g19
sbag1
(g2
g3
Ntp6210
Rp6211
(dp6212
g7
S'public'
p6213
sg9
g14
sbag1
(g2
g3
Ntp6214
Rp6215
(dp6216
g7
g18
sg9
g19
sbag1
(g2
g3
Ntp6217
Rp6218
(dp6219
g7
S'String'
p6220
sg9
g24
sbag1
(g2
g3
Ntp6221
Rp6222
(dp6223
g7
g18
sg9
g19
sbag1
(g2
g3
Ntp6224
Rp6225
(dp6226
g7
S'toString'
p6227
sg9
g24
sbag1
(g2
g3
Ntp6228
Rp6229
(dp6230
g7
g181
sg9
g29
sbag1
(g2
g3
Ntp6231
Rp6232
(dp6233
g7
g185
sg9
g29
sbag1
(g2
g3
Ntp6234
Rp6235
(dp6236
g7
g18
sg9
g19
sbag1
(g2
g3
Ntp6237
Rp6238
(dp6239
g7
g100
sg9
g29
sbag1
(g2
g3
Ntp6240
Rp6241
(dp6242
g7
g41
sg9
g19
sbag1
(g2
g3
Ntp6243
Rp6244
(dp6245
g7
g18
sg9
g19
sbag1
(g2
g3
Ntp6246
Rp6247
(dp6248
g7
g18
sg9
g19
sbag1
(g2
g3
Ntp6249
Rp6250
(dp6251
g7
g18
sg9
g19
sbag1
(g2
g3
Ntp6252
Rp6253
(dp6254
g7
g18
sg9
g19
sbag1
(g2
g3
Ntp6255
Rp6256
(dp6257
g7
g18
sg9
g19
sbag1
(g2
g3
Ntp6258
Rp6259
(dp6260
g7
g18
sg9
g19
sbag1
(g2
g3
Ntp6261
Rp6262
(dp6263
g7
g18
sg9
g19
sbag1
(g2
g3
Ntp6264
Rp6265
(dp6266
g7
g18
sg9
g19
sbag1
(g2
g3
Ntp6267
Rp6268
(dp6269
g7
S'return'
p6270
sg9
g14
sbag1
(g2
g3
Ntp6271
Rp6272
(dp6273
g7
g18
sg9
g19
sbag1
(g2
g3
Ntp6274
Rp6275
(dp6276
g7
S'this'
p6277
sg9
g14
sbag1
(g2
g3
Ntp6278
Rp6279
(dp6280
g7
g37
sg9
g29
sbag1
(g2
g3
Ntp6281
Rp6282
(dp6283
g7
g41
sg9
g19
sbag1
(g2
g3
Ntp6284
Rp6285
(dp6286
g7
g18
sg9
g19
sbag1
(g2
g3
Ntp6287
Rp6288
(dp6289
g7
g18
sg9
g19
sbag1
(g2
g3
Ntp6290
Rp6291
(dp6292
g7
g18
sg9
g19
sbag1
(g2
g3
Ntp6293
Rp6294
(dp6295
g7
g18
sg9
g19
sbag1
(g2
g3
Ntp6296
Rp6297
(dp6298
g7
g258
sg9
g29
sbag1
(g2
g3
Ntp6299
Rp6300
(dp6301
g7
g41
sg9
g19
sbag1
(g2
g3
Ntp6302
Rp6303
(dp6304
g7
g18
sg9
g19
sbag1
(g2
g3
Ntp6305
Rp6306
(dp6307
g7
g18
sg9
g19
sbag1
(g2
g3
Ntp6308
Rp6309
(dp6310
g7
g18
sg9
g19
sbag1
(g2
g3
Ntp6311
Rp6312
(dp6313
g7
g18
sg9
g19
sbag1
(g2
g3
Ntp6314
Rp6315
(dp6316
g7
S'public'
p6317
sg9
g14
sbag1
(g2
g3
Ntp6318
Rp6319
(dp6320
g7
g18
sg9
g19
sbag1
(g2
g3
Ntp6321
Rp6322
(dp6323
g7
S'int'
p6324
sg9
g14
sbag1
(g2
g3
Ntp6325
Rp6326
(dp6327
g7
g18
sg9
g19
sbag1
(g2
g3
Ntp6328
Rp6329
(dp6330
g7
S'compareTo'
p6331
sg9
g24
sbag1
(g2
g3
Ntp6332
Rp6333
(dp6334
g7
g181
sg9
g29
sbag1
(g2
g3
Ntp6335
Rp6336
(dp6337
g7
S'Object'
p6338
sg9
g24
sbag1
(g2
g3
Ntp6339
Rp6340
(dp6341
g7
g18
sg9
g19
sbag1
(g2
g3
Ntp6342
Rp6343
(dp6344
g7
S'other'
p6345
sg9
g24
sbag1
(g2
g3
Ntp6346
Rp6347
(dp6348
g7
g185
sg9
g29
sbag1
(g2
g3
Ntp6349
Rp6350
(dp6351
g7
g18
sg9
g19
sbag1
(g2
g3
Ntp6352
Rp6353
(dp6354
g7
g100
sg9
g29
sbag1
(g2
g3
Ntp6355
Rp6356
(dp6357
g7
g41
sg9
g19
sbag1
(g2
g3
Ntp6358
Rp6359
(dp6360
g7
g18
sg9
g19
sbag1
(g2
g3
Ntp6361
Rp6362
(dp6363
g7
g18
sg9
g19
sbag1
(g2
g3
Ntp6364
Rp6365
(dp6366
g7
g18
sg9
g19
sbag1
(g2
g3
Ntp6367
Rp6368
(dp6369
g7
g18
sg9
g19
sbag1
(g2
g3
Ntp6370
Rp6371
(dp6372
g7
g18
sg9
g19
sbag1
(g2
g3
Ntp6373
Rp6374
(dp6375
g7
g18
sg9
g19
sbag1
(g2
g3
Ntp6376
Rp6377
(dp6378
g7
g18
sg9
g19
sbag1
(g2
g3
Ntp6379
Rp6380
(dp6381
g7
g18
sg9
g19
sbag1
(g2
g3
Ntp6382
Rp6383
(dp6384
g7
S'return'
p6385
sg9
g14
sbag1
(g2
g3
Ntp6386
Rp6387
(dp6388
g7
g18
sg9
g19
sbag1
(g2
g3
Ntp6389
Rp6390
(dp6391
g7
S'compareTo'
p6392
sg9
g24
sbag1
(g2
g3
Ntp6393
Rp6394
(dp6395
g7
g181
sg9
g29
sbag1
(g2
g3
Ntp6396
Rp6397
(dp6398
g7
g181
sg9
g29
sbag1
(g2
g3
Ntp6399
Rp6400
(dp6401
g7
S'String'
p6402
sg9
g24
sbag1
(g2
g3
Ntp6403
Rp6404
(dp6405
g7
g185
sg9
g29
sbag1
(g2
g3
Ntp6406
Rp6407
(dp6408
g7
g18
sg9
g19
sbag1
(g2
g3
Ntp6409
Rp6410
(dp6411
g7
S'other'
p6412
sg9
g24
sbag1
(g2
g3
Ntp6413
Rp6414
(dp6415
g7
g185
sg9
g29
sbag1
(g2
g3
Ntp6416
Rp6417
(dp6418
g7
g37
sg9
g29
sbag1
(g2
g3
Ntp6419
Rp6420
(dp6421
g7
g41
sg9
g19
sbag1
(g2
g3
Ntp6422
Rp6423
(dp6424
g7
g18
sg9
g19
sbag1
(g2
g3
Ntp6425
Rp6426
(dp6427
g7
g18
sg9
g19
sbag1
(g2
g3
Ntp6428
Rp6429
(dp6430
g7
g18
sg9
g19
sbag1
(g2
g3
Ntp6431
Rp6432
(dp6433
g7
g18
sg9
g19
sbag1
(g2
g3
Ntp6434
Rp6435
(dp6436
g7
g258
sg9
g29
sbag1
(g2
g3
Ntp6437
Rp6438
(dp6439
g7
g41
sg9
g19
sbag1
(g2
g3
Ntp6440
Rp6441
(dp6442
g7
g18
sg9
g19
sbag1
(g2
g3
Ntp6443
Rp6444
(dp6445
g7
g18
sg9
g19
sbag1
(g2
g3
Ntp6446
Rp6447
(dp6448
g7
g18
sg9
g19
sbag1
(g2
g3
Ntp6449
Rp6450
(dp6451
g7
g18
sg9
g19
sbag1
(g2
g3
Ntp6452
Rp6453
(dp6454
g7
S'public'
p6455
sg9
g14
sbag1
(g2
g3
Ntp6456
Rp6457
(dp6458
g7
g18
sg9
g19
sbag1
(g2
g3
Ntp6459
Rp6460
(dp6461
g7
S'int'
p6462
sg9
g14
sbag1
(g2
g3
Ntp6463
Rp6464
(dp6465
g7
g18
sg9
g19
sbag1
(g2
g3
Ntp6466
Rp6467
(dp6468
g7
S'compareTo'
p6469
sg9
g24
sbag1
(g2
g3
Ntp6470
Rp6471
(dp6472
g7
g181
sg9
g29
sbag1
(g2
g3
Ntp6473
Rp6474
(dp6475
g7
S'String'
p6476
sg9
g24
sbag1
(g2
g3
Ntp6477
Rp6478
(dp6479
g7
g18
sg9
g19
sbag1
(g2
g3
Ntp6480
Rp6481
(dp6482
g7
S'other'
p6483
sg9
g24
sbag1
(g2
g3
Ntp6484
Rp6485
(dp6486
g7
g185
sg9
g29
sbag1
(g2
g3
Ntp6487
Rp6488
(dp6489
g7
g18
sg9
g19
sbag1
(g2
g3
Ntp6490
Rp6491
(dp6492
g7
g100
sg9
g29
sbag1
(g2
g3
Ntp6493
Rp6494
(dp6495
g7
g41
sg9
g19
sbag1
(g2
g3
Ntp6496
Rp6497
(dp6498
g7
g18
sg9
g19
sbag1
(g2
g3
Ntp6499
Rp6500
(dp6501
g7
g18
sg9
g19
sbag1
(g2
g3
Ntp6502
Rp6503
(dp6504
g7
g18
sg9
g19
sbag1
(g2
g3
Ntp6505
Rp6506
(dp6507
g7
g18
sg9
g19
sbag1
(g2
g3
Ntp6508
Rp6509
(dp6510
g7
g18
sg9
g19
sbag1
(g2
g3
Ntp6511
Rp6512
(dp6513
g7
g18
sg9
g19
sbag1
(g2
g3
Ntp6514
Rp6515
(dp6516
g7
g18
sg9
g19
sbag1
(g2
g3
Ntp6517
Rp6518
(dp6519
g7
g18
sg9
g19
sbag1
(g2
g3
Ntp6520
Rp6521
(dp6522
g7
S'int'
p6523
sg9
g14
sbag1
(g2
g3
Ntp6524
Rp6525
(dp6526
g7
g18
sg9
g19
sbag1
(g2
g3
Ntp6527
Rp6528
(dp6529
g7
g305
sg9
g24
sbag1
(g2
g3
Ntp6530
Rp6531
(dp6532
g7
g18
sg9
g19
sbag1
(g2
g3
Ntp6533
Rp6534
(dp6535
g7
g458
sg9
g459
sbag1
(g2
g3
Ntp6536
Rp6537
(dp6538
g7
g18
sg9
g19
sbag1
(g2
g3
Ntp6539
Rp6540
(dp6541
g7
g480
sg9
g481
sbag1
(g2
g3
Ntp6542
Rp6543
(dp6544
g7
g37
sg9
g29
sbag1
(g2
g3
Ntp6545
Rp6546
(dp6547
g7
g41
sg9
g19
sbag1
(g2
g3
Ntp6548
Rp6549
(dp6550
g7
g18
sg9
g19
sbag1
(g2
g3
Ntp6551
Rp6552
(dp6553
g7
g18
sg9
g19
sbag1
(g2
g3
Ntp6554
Rp6555
(dp6556
g7
g18
sg9
g19
sbag1
(g2
g3
Ntp6557
Rp6558
(dp6559
g7
g18
sg9
g19
sbag1
(g2
g3
Ntp6560
Rp6561
(dp6562
g7
g18
sg9
g19
sbag1
(g2
g3
Ntp6563
Rp6564
(dp6565
g7
g18
sg9
g19
sbag1
(g2
g3
Ntp6566
Rp6567
(dp6568
g7
g18
sg9
g19
sbag1
(g2
g3
Ntp6569
Rp6570
(dp6571
g7
g18
sg9
g19
sbag1
(g2
g3
Ntp6572
Rp6573
(dp6574
g7
S'boolean'
p6575
sg9
g14
sbag1
(g2
g3
Ntp6576
Rp6577
(dp6578
g7
g18
sg9
g19
sbag1
(g2
g3
Ntp6579
Rp6580
(dp6581
g7
g3873
sg9
g24
sbag1
(g2
g3
Ntp6582
Rp6583
(dp6584
g7
g18
sg9
g19
sbag1
(g2
g3
Ntp6585
Rp6586
(dp6587
g7
g458
sg9
g459
sbag1
(g2
g3
Ntp6588
Rp6589
(dp6590
g7
g18
sg9
g19
sbag1
(g2
g3
Ntp6591
Rp6592
(dp6593
g7
S'true'
p6594
sg9
g481
sbag1
(g2
g3
Ntp6595
Rp6596
(dp6597
g7
g37
sg9
g29
sbag1
(g2
g3
Ntp6598
Rp6599
(dp6600
g7
g41
sg9
g19
sbag1
(g2
g3
Ntp6601
Rp6602
(dp6603
g7
g18
sg9
g19
sbag1
(g2
g3
Ntp6604
Rp6605
(dp6606
g7
g18
sg9
g19
sbag1
(g2
g3
Ntp6607
Rp6608
(dp6609
g7
g18
sg9
g19
sbag1
(g2
g3
Ntp6610
Rp6611
(dp6612
g7
g18
sg9
g19
sbag1
(g2
g3
Ntp6613
Rp6614
(dp6615
g7
g18
sg9
g19
sbag1
(g2
g3
Ntp6616
Rp6617
(dp6618
g7
g18
sg9
g19
sbag1
(g2
g3
Ntp6619
Rp6620
(dp6621
g7
g18
sg9
g19
sbag1
(g2
g3
Ntp6622
Rp6623
(dp6624
g7
g18
sg9
g19
sbag1
(g2
g3
Ntp6625
Rp6626
(dp6627
g7
S'while'
p6628
sg9
g14
sbag1
(g2
g3
Ntp6629
Rp6630
(dp6631
g7
g181
sg9
g29
sbag1
(g2
g3
Ntp6632
Rp6633
(dp6634
g7
g3873
sg9
g24
sbag1
(g2
g3
Ntp6635
Rp6636
(dp6637
g7
g185
sg9
g29
sbag1
(g2
g3
Ntp6638
Rp6639
(dp6640
g7
g18
sg9
g19
sbag1
(g2
g3
Ntp6641
Rp6642
(dp6643
g7
g100
sg9
g29
sbag1
(g2
g3
Ntp6644
Rp6645
(dp6646
g7
g41
sg9
g19
sbag1
(g2
g3
Ntp6647
Rp6648
(dp6649
g7
g18
sg9
g19
sbag1
(g2
g3
Ntp6650
Rp6651
(dp6652
g7
g18
sg9
g19
sbag1
(g2
g3
Ntp6653
Rp6654
(dp6655
g7
g18
sg9
g19
sbag1
(g2
g3
Ntp6656
Rp6657
(dp6658
g7
g18
sg9
g19
sbag1
(g2
g3
Ntp6659
Rp6660
(dp6661
g7
g18
sg9
g19
sbag1
(g2
g3
Ntp6662
Rp6663
(dp6664
g7
g18
sg9
g19
sbag1
(g2
g3
Ntp6665
Rp6666
(dp6667
g7
g18
sg9
g19
sbag1
(g2
g3
Ntp6668
Rp6669
(dp6670
g7
g18
sg9
g19
sbag1
(g2
g3
Ntp6671
Rp6672
(dp6673
g7
g18
sg9
g19
sbag1
(g2
g3
Ntp6674
Rp6675
(dp6676
g7
g18
sg9
g19
sbag1
(g2
g3
Ntp6677
Rp6678
(dp6679
g7
g18
sg9
g19
sbag1
(g2
g3
Ntp6680
Rp6681
(dp6682
g7
g18
sg9
g19
sbag1
(g2
g3
Ntp6683
Rp6684
(dp6685
g7
S'if'
p6686
sg9
g14
sbag1
(g2
g3
Ntp6687
Rp6688
(dp6689
g7
g181
sg9
g29
sbag1
(g2
g3
Ntp6690
Rp6691
(dp6692
g7
g305
sg9
g24
sbag1
(g2
g3
Ntp6693
Rp6694
(dp6695
g7
g18
sg9
g19
sbag1
(g2
g3
Ntp6696
Rp6697
(dp6698
g7
S'>='
p6699
sg9
g459
sbag1
(g2
g3
Ntp6700
Rp6701
(dp6702
g7
g18
sg9
g19
sbag1
(g2
g3
Ntp6703
Rp6704
(dp6705
g7
S'chars'
p6706
sg9
g24
sbag1
(g2
g3
Ntp6707
Rp6708
(dp6709
g7
g28
sg9
g29
sbag1
(g2
g3
Ntp6710
Rp6711
(dp6712
g7
S'length'
p6713
sg9
g24
sbag1
(g2
g3
Ntp6714
Rp6715
(dp6716
g7
g18
sg9
g19
sbag1
(g2
g3
Ntp6717
Rp6718
(dp6719
g7
S'&&'
p6720
sg9
g459
sbag1
(g2
g3
Ntp6721
Rp6722
(dp6723
g7
g18
sg9
g19
sbag1
(g2
g3
Ntp6724
Rp6725
(dp6726
g7
g305
sg9
g24
sbag1
(g2
g3
Ntp6727
Rp6728
(dp6729
g7
g18
sg9
g19
sbag1
(g2
g3
Ntp6730
Rp6731
(dp6732
g7
S'>='
p6733
sg9
g459
sbag1
(g2
g3
Ntp6734
Rp6735
(dp6736
g7
g18
sg9
g19
sbag1
(g2
g3
Ntp6737
Rp6738
(dp6739
g7
S'other'
p6740
sg9
g24
sbag1
(g2
g3
Ntp6741
Rp6742
(dp6743
g7
g28
sg9
g29
sbag1
(g2
g3
Ntp6744
Rp6745
(dp6746
g7
S'chars'
p6747
sg9
g24
sbag1
(g2
g3
Ntp6748
Rp6749
(dp6750
g7
g28
sg9
g29
sbag1
(g2
g3
Ntp6751
Rp6752
(dp6753
g7
S'length'
p6754
sg9
g24
sbag1
(g2
g3
Ntp6755
Rp6756
(dp6757
g7
g185
sg9
g29
sbag1
(g2
g3
Ntp6758
Rp6759
(dp6760
g7
g18
sg9
g19
sbag1
(g2
g3
Ntp6761
Rp6762
(dp6763
g7
S'return'
p6764
sg9
g14
sbag1
(g2
g3
Ntp6765
Rp6766
(dp6767
g7
g18
sg9
g19
sbag1
(g2
g3
Ntp6768
Rp6769
(dp6770
g7
g480
sg9
g481
sbag1
(g2
g3
Ntp6771
Rp6772
(dp6773
g7
g37
sg9
g29
sbag1
(g2
g3
Ntp6774
Rp6775
(dp6776
g7
g41
sg9
g19
sbag1
(g2
g3
Ntp6777
Rp6778
(dp6779
g7
g18
sg9
g19
sbag1
(g2
g3
Ntp6780
Rp6781
(dp6782
g7
g18
sg9
g19
sbag1
(g2
g3
Ntp6783
Rp6784
(dp6785
g7
g18
sg9
g19
sbag1
(g2
g3
Ntp6786
Rp6787
(dp6788
g7
g18
sg9
g19
sbag1
(g2
g3
Ntp6789
Rp6790
(dp6791
g7
g18
sg9
g19
sbag1
(g2
g3
Ntp6792
Rp6793
(dp6794
g7
g18
sg9
g19
sbag1
(g2
g3
Ntp6795
Rp6796
(dp6797
g7
g18
sg9
g19
sbag1
(g2
g3
Ntp6798
Rp6799
(dp6800
g7
g18
sg9
g19
sbag1
(g2
g3
Ntp6801
Rp6802
(dp6803
g7
g18
sg9
g19
sbag1
(g2
g3
Ntp6804
Rp6805
(dp6806
g7
g18
sg9
g19
sbag1
(g2
g3
Ntp6807
Rp6808
(dp6809
g7
g18
sg9
g19
sbag1
(g2
g3
Ntp6810
Rp6811
(dp6812
g7
g18
sg9
g19
sbag1
(g2
g3
Ntp6813
Rp6814
(dp6815
g7
S'if'
p6816
sg9
g14
sbag1
(g2
g3
Ntp6817
Rp6818
(dp6819
g7
g181
sg9
g29
sbag1
(g2
g3
Ntp6820
Rp6821
(dp6822
g7
g305
sg9
g24
sbag1
(g2
g3
Ntp6823
Rp6824
(dp6825
g7
g18
sg9
g19
sbag1
(g2
g3
Ntp6826
Rp6827
(dp6828
g7
S'>='
p6829
sg9
g459
sbag1
(g2
g3
Ntp6830
Rp6831
(dp6832
g7
g18
sg9
g19
sbag1
(g2
g3
Ntp6833
Rp6834
(dp6835
g7
S'chars'
p6836
sg9
g24
sbag1
(g2
g3
Ntp6837
Rp6838
(dp6839
g7
g28
sg9
g29
sbag1
(g2
g3
Ntp6840
Rp6841
(dp6842
g7
S'length'
p6843
sg9
g24
sbag1
(g2
g3
Ntp6844
Rp6845
(dp6846
g7
g185
sg9
g29
sbag1
(g2
g3
Ntp6847
Rp6848
(dp6849
g7
g18
sg9
g19
sbag1
(g2
g3
Ntp6850
Rp6851
(dp6852
g7
S'return'
p6853
sg9
g14
sbag1
(g2
g3
Ntp6854
Rp6855
(dp6856
g7
g18
sg9
g19
sbag1
(g2
g3
Ntp6857
Rp6858
(dp6859
g7
g2210
sg9
g459
sbag1
(g2
g3
Ntp6860
Rp6861
(dp6862
g7
g759
sg9
g481
sbag1
(g2
g3
Ntp6863
Rp6864
(dp6865
g7
g37
sg9
g29
sbag1
(g2
g3
Ntp6866
Rp6867
(dp6868
g7
g41
sg9
g19
sbag1
(g2
g3
Ntp6869
Rp6870
(dp6871
g7
g18
sg9
g19
sbag1
(g2
g3
Ntp6872
Rp6873
(dp6874
g7
g18
sg9
g19
sbag1
(g2
g3
Ntp6875
Rp6876
(dp6877
g7
g18
sg9
g19
sbag1
(g2
g3
Ntp6878
Rp6879
(dp6880
g7
g18
sg9
g19
sbag1
(g2
g3
Ntp6881
Rp6882
(dp6883
g7
g18
sg9
g19
sbag1
(g2
g3
Ntp6884
Rp6885
(dp6886
g7
g18
sg9
g19
sbag1
(g2
g3
Ntp6887
Rp6888
(dp6889
g7
g18
sg9
g19
sbag1
(g2
g3
Ntp6890
Rp6891
(dp6892
g7
g18
sg9
g19
sbag1
(g2
g3
Ntp6893
Rp6894
(dp6895
g7
g18
sg9
g19
sbag1
(g2
g3
Ntp6896
Rp6897
(dp6898
g7
g18
sg9
g19
sbag1
(g2
g3
Ntp6899
Rp6900
(dp6901
g7
g18
sg9
g19
sbag1
(g2
g3
Ntp6902
Rp6903
(dp6904
g7
g18
sg9
g19
sbag1
(g2
g3
Ntp6905
Rp6906
(dp6907
g7
S'if'
p6908
sg9
g14
sbag1
(g2
g3
Ntp6909
Rp6910
(dp6911
g7
g181
sg9
g29
sbag1
(g2
g3
Ntp6912
Rp6913
(dp6914
g7
g305
sg9
g24
sbag1
(g2
g3
Ntp6915
Rp6916
(dp6917
g7
g18
sg9
g19
sbag1
(g2
g3
Ntp6918
Rp6919
(dp6920
g7
S'>='
p6921
sg9
g459
sbag1
(g2
g3
Ntp6922
Rp6923
(dp6924
g7
g18
sg9
g19
sbag1
(g2
g3
Ntp6925
Rp6926
(dp6927
g7
S'other'
p6928
sg9
g24
sbag1
(g2
g3
Ntp6929
Rp6930
(dp6931
g7
g28
sg9
g29
sbag1
(g2
g3
Ntp6932
Rp6933
(dp6934
g7
S'chars'
p6935
sg9
g24
sbag1
(g2
g3
Ntp6936
Rp6937
(dp6938
g7
g28
sg9
g29
sbag1
(g2
g3
Ntp6939
Rp6940
(dp6941
g7
S'length'
p6942
sg9
g24
sbag1
(g2
g3
Ntp6943
Rp6944
(dp6945
g7
g185
sg9
g29
sbag1
(g2
g3
Ntp6946
Rp6947
(dp6948
g7
g18
sg9
g19
sbag1
(g2
g3
Ntp6949
Rp6950
(dp6951
g7
S'return'
p6952
sg9
g14
sbag1
(g2
g3
Ntp6953
Rp6954
(dp6955
g7
g18
sg9
g19
sbag1
(g2
g3
Ntp6956
Rp6957
(dp6958
g7
g759
sg9
g481
sbag1
(g2
g3
Ntp6959
Rp6960
(dp6961
g7
g37
sg9
g29
sbag1
(g2
g3
Ntp6962
Rp6963
(dp6964
g7
g41
sg9
g19
sbag1
(g2
g3
Ntp6965
Rp6966
(dp6967
g7
g18
sg9
g19
sbag1
(g2
g3
Ntp6968
Rp6969
(dp6970
g7
g18
sg9
g19
sbag1
(g2
g3
Ntp6971
Rp6972
(dp6973
g7
g18
sg9
g19
sbag1
(g2
g3
Ntp6974
Rp6975
(dp6976
g7
g18
sg9
g19
sbag1
(g2
g3
Ntp6977
Rp6978
(dp6979
g7
g18
sg9
g19
sbag1
(g2
g3
Ntp6980
Rp6981
(dp6982
g7
g18
sg9
g19
sbag1
(g2
g3
Ntp6983
Rp6984
(dp6985
g7
g18
sg9
g19
sbag1
(g2
g3
Ntp6986
Rp6987
(dp6988
g7
g18
sg9
g19
sbag1
(g2
g3
Ntp6989
Rp6990
(dp6991
g7
g18
sg9
g19
sbag1
(g2
g3
Ntp6992
Rp6993
(dp6994
g7
g18
sg9
g19
sbag1
(g2
g3
Ntp6995
Rp6996
(dp6997
g7
g18
sg9
g19
sbag1
(g2
g3
Ntp6998
Rp6999
(dp7000
g7
g18
sg9
g19
sbag1
(g2
g3
Ntp7001
Rp7002
(dp7003
g7
S'if'
p7004
sg9
g14
sbag1
(g2
g3
Ntp7005
Rp7006
(dp7007
g7
g181
sg9
g29
sbag1
(g2
g3
Ntp7008
Rp7009
(dp7010
g7
S'chars'
p7011
sg9
g24
sbag1
(g2
g3
Ntp7012
Rp7013
(dp7014
g7
g130
sg9
g29
sbag1
(g2
g3
Ntp7015
Rp7016
(dp7017
g7
g305
sg9
g24
sbag1
(g2
g3
Ntp7018
Rp7019
(dp7020
g7
g134
sg9
g29
sbag1
(g2
g3
Ntp7021
Rp7022
(dp7023
g7
g18
sg9
g19
sbag1
(g2
g3
Ntp7024
Rp7025
(dp7026
g7
g710
sg9
g459
sbag1
(g2
g3
Ntp7027
Rp7028
(dp7029
g7
g18
sg9
g19
sbag1
(g2
g3
Ntp7030
Rp7031
(dp7032
g7
S'other'
p7033
sg9
g24
sbag1
(g2
g3
Ntp7034
Rp7035
(dp7036
g7
g28
sg9
g29
sbag1
(g2
g3
Ntp7037
Rp7038
(dp7039
g7
S'chars'
p7040
sg9
g24
sbag1
(g2
g3
Ntp7041
Rp7042
(dp7043
g7
g130
sg9
g29
sbag1
(g2
g3
Ntp7044
Rp7045
(dp7046
g7
g305
sg9
g24
sbag1
(g2
g3
Ntp7047
Rp7048
(dp7049
g7
g134
sg9
g29
sbag1
(g2
g3
Ntp7050
Rp7051
(dp7052
g7
g185
sg9
g29
sbag1
(g2
g3
Ntp7053
Rp7054
(dp7055
g7
g18
sg9
g19
sbag1
(g2
g3
Ntp7056
Rp7057
(dp7058
g7
g18
sg9
g19
sbag1
(g2
g3
Ntp7059
Rp7060
(dp7061
g7
S'return'
p7062
sg9
g14
sbag1
(g2
g3
Ntp7063
Rp7064
(dp7065
g7
g18
sg9
g19
sbag1
(g2
g3
Ntp7066
Rp7067
(dp7068
g7
g2210
sg9
g459
sbag1
(g2
g3
Ntp7069
Rp7070
(dp7071
g7
g759
sg9
g481
sbag1
(g2
g3
Ntp7072
Rp7073
(dp7074
g7
g37
sg9
g29
sbag1
(g2
g3
Ntp7075
Rp7076
(dp7077
g7
g41
sg9
g19
sbag1
(g2
g3
Ntp7078
Rp7079
(dp7080
g7
g18
sg9
g19
sbag1
(g2
g3
Ntp7081
Rp7082
(dp7083
g7
g18
sg9
g19
sbag1
(g2
g3
Ntp7084
Rp7085
(dp7086
g7
g18
sg9
g19
sbag1
(g2
g3
Ntp7087
Rp7088
(dp7089
g7
g18
sg9
g19
sbag1
(g2
g3
Ntp7090
Rp7091
(dp7092
g7
g18
sg9
g19
sbag1
(g2
g3
Ntp7093
Rp7094
(dp7095
g7
g18
sg9
g19
sbag1
(g2
g3
Ntp7096
Rp7097
(dp7098
g7
g18
sg9
g19
sbag1
(g2
g3
Ntp7099
Rp7100
(dp7101
g7
g18
sg9
g19
sbag1
(g2
g3
Ntp7102
Rp7103
(dp7104
g7
g18
sg9
g19
sbag1
(g2
g3
Ntp7105
Rp7106
(dp7107
g7
g18
sg9
g19
sbag1
(g2
g3
Ntp7108
Rp7109
(dp7110
g7
g18
sg9
g19
sbag1
(g2
g3
Ntp7111
Rp7112
(dp7113
g7
g18
sg9
g19
sbag1
(g2
g3
Ntp7114
Rp7115
(dp7116
g7
S'if'
p7117
sg9
g14
sbag1
(g2
g3
Ntp7118
Rp7119
(dp7120
g7
g181
sg9
g29
sbag1
(g2
g3
Ntp7121
Rp7122
(dp7123
g7
S'chars'
p7124
sg9
g24
sbag1
(g2
g3
Ntp7125
Rp7126
(dp7127
g7
g130
sg9
g29
sbag1
(g2
g3
Ntp7128
Rp7129
(dp7130
g7
g305
sg9
g24
sbag1
(g2
g3
Ntp7131
Rp7132
(dp7133
g7
g134
sg9
g29
sbag1
(g2
g3
Ntp7134
Rp7135
(dp7136
g7
g18
sg9
g19
sbag1
(g2
g3
Ntp7137
Rp7138
(dp7139
g7
g2541
sg9
g459
sbag1
(g2
g3
Ntp7140
Rp7141
(dp7142
g7
g18
sg9
g19
sbag1
(g2
g3
Ntp7143
Rp7144
(dp7145
g7
S'other'
p7146
sg9
g24
sbag1
(g2
g3
Ntp7147
Rp7148
(dp7149
g7
g28
sg9
g29
sbag1
(g2
g3
Ntp7150
Rp7151
(dp7152
g7
S'chars'
p7153
sg9
g24
sbag1
(g2
g3
Ntp7154
Rp7155
(dp7156
g7
g130
sg9
g29
sbag1
(g2
g3
Ntp7157
Rp7158
(dp7159
g7
g305
sg9
g24
sbag1
(g2
g3
Ntp7160
Rp7161
(dp7162
g7
g134
sg9
g29
sbag1
(g2
g3
Ntp7163
Rp7164
(dp7165
g7
g185
sg9
g29
sbag1
(g2
g3
Ntp7166
Rp7167
(dp7168
g7
g18
sg9
g19
sbag1
(g2
g3
Ntp7169
Rp7170
(dp7171
g7
g18
sg9
g19
sbag1
(g2
g3
Ntp7172
Rp7173
(dp7174
g7
S'return'
p7175
sg9
g14
sbag1
(g2
g3
Ntp7176
Rp7177
(dp7178
g7
g18
sg9
g19
sbag1
(g2
g3
Ntp7179
Rp7180
(dp7181
g7
g759
sg9
g481
sbag1
(g2
g3
Ntp7182
Rp7183
(dp7184
g7
g37
sg9
g29
sbag1
(g2
g3
Ntp7185
Rp7186
(dp7187
g7
g41
sg9
g19
sbag1
(g2
g3
Ntp7188
Rp7189
(dp7190
g7
g18
sg9
g19
sbag1
(g2
g3
Ntp7191
Rp7192
(dp7193
g7
g18
sg9
g19
sbag1
(g2
g3
Ntp7194
Rp7195
(dp7196
g7
g18
sg9
g19
sbag1
(g2
g3
Ntp7197
Rp7198
(dp7199
g7
g18
sg9
g19
sbag1
(g2
g3
Ntp7200
Rp7201
(dp7202
g7
g18
sg9
g19
sbag1
(g2
g3
Ntp7203
Rp7204
(dp7205
g7
g18
sg9
g19
sbag1
(g2
g3
Ntp7206
Rp7207
(dp7208
g7
g18
sg9
g19
sbag1
(g2
g3
Ntp7209
Rp7210
(dp7211
g7
g18
sg9
g19
sbag1
(g2
g3
Ntp7212
Rp7213
(dp7214
g7
g18
sg9
g19
sbag1
(g2
g3
Ntp7215
Rp7216
(dp7217
g7
g18
sg9
g19
sbag1
(g2
g3
Ntp7218
Rp7219
(dp7220
g7
g18
sg9
g19
sbag1
(g2
g3
Ntp7221
Rp7222
(dp7223
g7
g18
sg9
g19
sbag1
(g2
g3
Ntp7224
Rp7225
(dp7226
g7
g305
sg9
g24
sbag1
(g2
g3
Ntp7227
Rp7228
(dp7229
g7
g18
sg9
g19
sbag1
(g2
g3
Ntp7230
Rp7231
(dp7232
g7
g458
sg9
g459
sbag1
(g2
g3
Ntp7233
Rp7234
(dp7235
g7
g18
sg9
g19
sbag1
(g2
g3
Ntp7236
Rp7237
(dp7238
g7
g305
sg9
g24
sbag1
(g2
g3
Ntp7239
Rp7240
(dp7241
g7
g18
sg9
g19
sbag1
(g2
g3
Ntp7242
Rp7243
(dp7244
g7
g752
sg9
g459
sbag1
(g2
g3
Ntp7245
Rp7246
(dp7247
g7
g18
sg9
g19
sbag1
(g2
g3
Ntp7248
Rp7249
(dp7250
g7
g759
sg9
g481
sbag1
(g2
g3
Ntp7251
Rp7252
(dp7253
g7
g37
sg9
g29
sbag1
(g2
g3
Ntp7254
Rp7255
(dp7256
g7
g41
sg9
g19
sbag1
(g2
g3
Ntp7257
Rp7258
(dp7259
g7
g18
sg9
g19
sbag1
(g2
g3
Ntp7260
Rp7261
(dp7262
g7
g18
sg9
g19
sbag1
(g2
g3
Ntp7263
Rp7264
(dp7265
g7
g18
sg9
g19
sbag1
(g2
g3
Ntp7266
Rp7267
(dp7268
g7
g18
sg9
g19
sbag1
(g2
g3
Ntp7269
Rp7270
(dp7271
g7
g18
sg9
g19
sbag1
(g2
g3
Ntp7272
Rp7273
(dp7274
g7
g18
sg9
g19
sbag1
(g2
g3
Ntp7275
Rp7276
(dp7277
g7
g18
sg9
g19
sbag1
(g2
g3
Ntp7278
Rp7279
(dp7280
g7
g18
sg9
g19
sbag1
(g2
g3
Ntp7281
Rp7282
(dp7283
g7
g258
sg9
g29
sbag1
(g2
g3
Ntp7284
Rp7285
(dp7286
g7
g41
sg9
g19
sbag1
(g2
g3
Ntp7287
Rp7288
(dp7289
g7
g18
sg9
g19
sbag1
(g2
g3
Ntp7290
Rp7291
(dp7292
g7
g18
sg9
g19
sbag1
(g2
g3
Ntp7293
Rp7294
(dp7295
g7
g18
sg9
g19
sbag1
(g2
g3
Ntp7296
Rp7297
(dp7298
g7
g18
sg9
g19
sbag1
(g2
g3
Ntp7299
Rp7300
(dp7301
g7
g18
sg9
g19
sbag1
(g2
g3
Ntp7302
Rp7303
(dp7304
g7
g18
sg9
g19
sbag1
(g2
g3
Ntp7305
Rp7306
(dp7307
g7
g18
sg9
g19
sbag1
(g2
g3
Ntp7308
Rp7309
(dp7310
g7
g18
sg9
g19
sbag1
(g2
g3
Ntp7311
Rp7312
(dp7313
g7
S'return'
p7314
sg9
g14
sbag1
(g2
g3
Ntp7315
Rp7316
(dp7317
g7
g18
sg9
g19
sbag1
(g2
g3
Ntp7318
Rp7319
(dp7320
g7
g480
sg9
g481
sbag1
(g2
g3
Ntp7321
Rp7322
(dp7323
g7
g37
sg9
g29
sbag1
(g2
g3
Ntp7324
Rp7325
(dp7326
g7
g41
sg9
g19
sbag1
(g2
g3
Ntp7327
Rp7328
(dp7329
g7
g18
sg9
g19
sbag1
(g2
g3
Ntp7330
Rp7331
(dp7332
g7
g18
sg9
g19
sbag1
(g2
g3
Ntp7333
Rp7334
(dp7335
g7
g18
sg9
g19
sbag1
(g2
g3
Ntp7336
Rp7337
(dp7338
g7
g18
sg9
g19
sbag1
(g2
g3
Ntp7339
Rp7340
(dp7341
g7
g258
sg9
g29
sbag1
(g2
g3
Ntp7342
Rp7343
(dp7344
g7
g41
sg9
g19
sbag1
(g2
g3
Ntp7345
Rp7346
(dp7347
g7
g18
sg9
g19
sbag1
(g2
g3
Ntp7348
Rp7349
(dp7350
g7
g18
sg9
g19
sbag1
(g2
g3
Ntp7351
Rp7352
(dp7353
g7
g18
sg9
g19
sbag1
(g2
g3
Ntp7354
Rp7355
(dp7356
g7
g18
sg9
g19
sbag1
(g2
g3
Ntp7357
Rp7358
(dp7359
g7
S'public'
p7360
sg9
g14
sbag1
(g2
g3
Ntp7361
Rp7362
(dp7363
g7
g18
sg9
g19
sbag1
(g2
g3
Ntp7364
Rp7365
(dp7366
g7
S'char'
p7367
sg9
g14
sbag1
(g2
g3
Ntp7368
Rp7369
(dp7370
g7
g130
sg9
g29
sbag1
(g2
g3
Ntp7371
Rp7372
(dp7373
g7
g134
sg9
g29
sbag1
(g2
g3
Ntp7374
Rp7375
(dp7376
g7
g18
sg9
g19
sbag1
(g2
g3
Ntp7377
Rp7378
(dp7379
g7
S'toCharArray'
p7380
sg9
g24
sbag1
(g2
g3
Ntp7381
Rp7382
(dp7383
g7
g181
sg9
g29
sbag1
(g2
g3
Ntp7384
Rp7385
(dp7386
g7
g185
sg9
g29
sbag1
(g2
g3
Ntp7387
Rp7388
(dp7389
g7
g18
sg9
g19
sbag1
(g2
g3
Ntp7390
Rp7391
(dp7392
g7
g100
sg9
g29
sbag1
(g2
g3
Ntp7393
Rp7394
(dp7395
g7
g41
sg9
g19
sbag1
(g2
g3
Ntp7396
Rp7397
(dp7398
g7
g18
sg9
g19
sbag1
(g2
g3
Ntp7399
Rp7400
(dp7401
g7
g18
sg9
g19
sbag1
(g2
g3
Ntp7402
Rp7403
(dp7404
g7
g18
sg9
g19
sbag1
(g2
g3
Ntp7405
Rp7406
(dp7407
g7
g18
sg9
g19
sbag1
(g2
g3
Ntp7408
Rp7409
(dp7410
g7
g18
sg9
g19
sbag1
(g2
g3
Ntp7411
Rp7412
(dp7413
g7
g18
sg9
g19
sbag1
(g2
g3
Ntp7414
Rp7415
(dp7416
g7
g18
sg9
g19
sbag1
(g2
g3
Ntp7417
Rp7418
(dp7419
g7
g18
sg9
g19
sbag1
(g2
g3
Ntp7420
Rp7421
(dp7422
g7
S'char'
p7423
sg9
g14
sbag1
(g2
g3
Ntp7424
Rp7425
(dp7426
g7
g130
sg9
g29
sbag1
(g2
g3
Ntp7427
Rp7428
(dp7429
g7
g134
sg9
g29
sbag1
(g2
g3
Ntp7430
Rp7431
(dp7432
g7
g18
sg9
g19
sbag1
(g2
g3
Ntp7433
Rp7434
(dp7435
g7
S'ret'
p7436
sg9
g24
sbag1
(g2
g3
Ntp7437
Rp7438
(dp7439
g7
g18
sg9
g19
sbag1
(g2
g3
Ntp7440
Rp7441
(dp7442
g7
g458
sg9
g459
sbag1
(g2
g3
Ntp7443
Rp7444
(dp7445
g7
g18
sg9
g19
sbag1
(g2
g3
Ntp7446
Rp7447
(dp7448
g7
S'new'
p7449
sg9
g14
sbag1
(g2
g3
Ntp7450
Rp7451
(dp7452
g7
g18
sg9
g19
sbag1
(g2
g3
Ntp7453
Rp7454
(dp7455
g7
S'char'
p7456
sg9
g14
sbag1
(g2
g3
Ntp7457
Rp7458
(dp7459
g7
g130
sg9
g29
sbag1
(g2
g3
Ntp7460
Rp7461
(dp7462
g7
S'chars'
p7463
sg9
g24
sbag1
(g2
g3
Ntp7464
Rp7465
(dp7466
g7
g28
sg9
g29
sbag1
(g2
g3
Ntp7467
Rp7468
(dp7469
g7
S'length'
p7470
sg9
g24
sbag1
(g2
g3
Ntp7471
Rp7472
(dp7473
g7
g134
sg9
g29
sbag1
(g2
g3
Ntp7474
Rp7475
(dp7476
g7
g37
sg9
g29
sbag1
(g2
g3
Ntp7477
Rp7478
(dp7479
g7
g41
sg9
g19
sbag1
(g2
g3
Ntp7480
Rp7481
(dp7482
g7
g18
sg9
g19
sbag1
(g2
g3
Ntp7483
Rp7484
(dp7485
g7
g18
sg9
g19
sbag1
(g2
g3
Ntp7486
Rp7487
(dp7488
g7
g18
sg9
g19
sbag1
(g2
g3
Ntp7489
Rp7490
(dp7491
g7
g18
sg9
g19
sbag1
(g2
g3
Ntp7492
Rp7493
(dp7494
g7
g18
sg9
g19
sbag1
(g2
g3
Ntp7495
Rp7496
(dp7497
g7
g18
sg9
g19
sbag1
(g2
g3
Ntp7498
Rp7499
(dp7500
g7
g18
sg9
g19
sbag1
(g2
g3
Ntp7501
Rp7502
(dp7503
g7
g18
sg9
g19
sbag1
(g2
g3
Ntp7504
Rp7505
(dp7506
g7
S'for'
p7507
sg9
g14
sbag1
(g2
g3
Ntp7508
Rp7509
(dp7510
g7
g181
sg9
g29
sbag1
(g2
g3
Ntp7511
Rp7512
(dp7513
g7
S'int'
p7514
sg9
g14
sbag1
(g2
g3
Ntp7515
Rp7516
(dp7517
g7
g18
sg9
g19
sbag1
(g2
g3
Ntp7518
Rp7519
(dp7520
g7
g305
sg9
g24
sbag1
(g2
g3
Ntp7521
Rp7522
(dp7523
g7
g18
sg9
g19
sbag1
(g2
g3
Ntp7524
Rp7525
(dp7526
g7
g458
sg9
g459
sbag1
(g2
g3
Ntp7527
Rp7528
(dp7529
g7
g18
sg9
g19
sbag1
(g2
g3
Ntp7530
Rp7531
(dp7532
g7
g480
sg9
g481
sbag1
(g2
g3
Ntp7533
Rp7534
(dp7535
g7
g37
sg9
g29
sbag1
(g2
g3
Ntp7536
Rp7537
(dp7538
g7
g18
sg9
g19
sbag1
(g2
g3
Ntp7539
Rp7540
(dp7541
g7
g305
sg9
g24
sbag1
(g2
g3
Ntp7542
Rp7543
(dp7544
g7
g18
sg9
g19
sbag1
(g2
g3
Ntp7545
Rp7546
(dp7547
g7
S'<='
p7548
sg9
g459
sbag1
(g2
g3
Ntp7549
Rp7550
(dp7551
g7
g18
sg9
g19
sbag1
(g2
g3
Ntp7552
Rp7553
(dp7554
g7
S'ret'
p7555
sg9
g24
sbag1
(g2
g3
Ntp7556
Rp7557
(dp7558
g7
g28
sg9
g29
sbag1
(g2
g3
Ntp7559
Rp7560
(dp7561
g7
S'length'
p7562
sg9
g24
sbag1
(g2
g3
Ntp7563
Rp7564
(dp7565
g7
g37
sg9
g29
sbag1
(g2
g3
Ntp7566
Rp7567
(dp7568
g7
g18
sg9
g19
sbag1
(g2
g3
Ntp7569
Rp7570
(dp7571
g7
g305
sg9
g24
sbag1
(g2
g3
Ntp7572
Rp7573
(dp7574
g7
g18
sg9
g19
sbag1
(g2
g3
Ntp7575
Rp7576
(dp7577
g7
g458
sg9
g459
sbag1
(g2
g3
Ntp7578
Rp7579
(dp7580
g7
g18
sg9
g19
sbag1
(g2
g3
Ntp7581
Rp7582
(dp7583
g7
g305
sg9
g24
sbag1
(g2
g3
Ntp7584
Rp7585
(dp7586
g7
g752
sg9
g459
sbag1
(g2
g3
Ntp7587
Rp7588
(dp7589
g7
g759
sg9
g481
sbag1
(g2
g3
Ntp7590
Rp7591
(dp7592
g7
g185
sg9
g29
sbag1
(g2
g3
Ntp7593
Rp7594
(dp7595
g7
g18
sg9
g19
sbag1
(g2
g3
Ntp7596
Rp7597
(dp7598
g7
g100
sg9
g29
sbag1
(g2
g3
Ntp7599
Rp7600
(dp7601
g7
g41
sg9
g19
sbag1
(g2
g3
Ntp7602
Rp7603
(dp7604
g7
g18
sg9
g19
sbag1
(g2
g3
Ntp7605
Rp7606
(dp7607
g7
g18
sg9
g19
sbag1
(g2
g3
Ntp7608
Rp7609
(dp7610
g7
g18
sg9
g19
sbag1
(g2
g3
Ntp7611
Rp7612
(dp7613
g7
g18
sg9
g19
sbag1
(g2
g3
Ntp7614
Rp7615
(dp7616
g7
g18
sg9
g19
sbag1
(g2
g3
Ntp7617
Rp7618
(dp7619
g7
g18
sg9
g19
sbag1
(g2
g3
Ntp7620
Rp7621
(dp7622
g7
g18
sg9
g19
sbag1
(g2
g3
Ntp7623
Rp7624
(dp7625
g7
g18
sg9
g19
sbag1
(g2
g3
Ntp7626
Rp7627
(dp7628
g7
g18
sg9
g19
sbag1
(g2
g3
Ntp7629
Rp7630
(dp7631
g7
g18
sg9
g19
sbag1
(g2
g3
Ntp7632
Rp7633
(dp7634
g7
g18
sg9
g19
sbag1
(g2
g3
Ntp7635
Rp7636
(dp7637
g7
g18
sg9
g19
sbag1
(g2
g3
Ntp7638
Rp7639
(dp7640
g7
S'ret'
p7641
sg9
g24
sbag1
(g2
g3
Ntp7642
Rp7643
(dp7644
g7
g130
sg9
g29
sbag1
(g2
g3
Ntp7645
Rp7646
(dp7647
g7
g305
sg9
g24
sbag1
(g2
g3
Ntp7648
Rp7649
(dp7650
g7
g134
sg9
g29
sbag1
(g2
g3
Ntp7651
Rp7652
(dp7653
g7
g18
sg9
g19
sbag1
(g2
g3
Ntp7654
Rp7655
(dp7656
g7
g458
sg9
g459
sbag1
(g2
g3
Ntp7657
Rp7658
(dp7659
g7
g18
sg9
g19
sbag1
(g2
g3
Ntp7660
Rp7661
(dp7662
g7
S'chars'
p7663
sg9
g24
sbag1
(g2
g3
Ntp7664
Rp7665
(dp7666
g7
g130
sg9
g29
sbag1
(g2
g3
Ntp7667
Rp7668
(dp7669
g7
g305
sg9
g24
sbag1
(g2
g3
Ntp7670
Rp7671
(dp7672
g7
g134
sg9
g29
sbag1
(g2
g3
Ntp7673
Rp7674
(dp7675
g7
g37
sg9
g29
sbag1
(g2
g3
Ntp7676
Rp7677
(dp7678
g7
g41
sg9
g19
sbag1
(g2
g3
Ntp7679
Rp7680
(dp7681
g7
g18
sg9
g19
sbag1
(g2
g3
Ntp7682
Rp7683
(dp7684
g7
g18
sg9
g19
sbag1
(g2
g3
Ntp7685
Rp7686
(dp7687
g7
g18
sg9
g19
sbag1
(g2
g3
Ntp7688
Rp7689
(dp7690
g7
g18
sg9
g19
sbag1
(g2
g3
Ntp7691
Rp7692
(dp7693
g7
g18
sg9
g19
sbag1
(g2
g3
Ntp7694
Rp7695
(dp7696
g7
g18
sg9
g19
sbag1
(g2
g3
Ntp7697
Rp7698
(dp7699
g7
g18
sg9
g19
sbag1
(g2
g3
Ntp7700
Rp7701
(dp7702
g7
g18
sg9
g19
sbag1
(g2
g3
Ntp7703
Rp7704
(dp7705
g7
g258
sg9
g29
sbag1
(g2
g3
Ntp7706
Rp7707
(dp7708
g7
g41
sg9
g19
sbag1
(g2
g3
Ntp7709
Rp7710
(dp7711
g7
g18
sg9
g19
sbag1
(g2
g3
Ntp7712
Rp7713
(dp7714
g7
g18
sg9
g19
sbag1
(g2
g3
Ntp7715
Rp7716
(dp7717
g7
g18
sg9
g19
sbag1
(g2
g3
Ntp7718
Rp7719
(dp7720
g7
g18
sg9
g19
sbag1
(g2
g3
Ntp7721
Rp7722
(dp7723
g7
g18
sg9
g19
sbag1
(g2
g3
Ntp7724
Rp7725
(dp7726
g7
g18
sg9
g19
sbag1
(g2
g3
Ntp7727
Rp7728
(dp7729
g7
g18
sg9
g19
sbag1
(g2
g3
Ntp7730
Rp7731
(dp7732
g7
g18
sg9
g19
sbag1
(g2
g3
Ntp7733
Rp7734
(dp7735
g7
S'return'
p7736
sg9
g14
sbag1
(g2
g3
Ntp7737
Rp7738
(dp7739
g7
g18
sg9
g19
sbag1
(g2
g3
Ntp7740
Rp7741
(dp7742
g7
S'ret'
p7743
sg9
g24
sbag1
(g2
g3
Ntp7744
Rp7745
(dp7746
g7
g37
sg9
g29
sbag1
(g2
g3
Ntp7747
Rp7748
(dp7749
g7
g41
sg9
g19
sbag1
(g2
g3
Ntp7750
Rp7751
(dp7752
g7
g18
sg9
g19
sbag1
(g2
g3
Ntp7753
Rp7754
(dp7755
g7
g18
sg9
g19
sbag1
(g2
g3
Ntp7756
Rp7757
(dp7758
g7
g18
sg9
g19
sbag1
(g2
g3
Ntp7759
Rp7760
(dp7761
g7
g18
sg9
g19
sbag1
(g2
g3
Ntp7762
Rp7763
(dp7764
g7
g258
sg9
g29
sbag1
(g2
g3
Ntp7765
Rp7766
(dp7767
g7
g41
sg9
g19
sbag1
(g2
g3
Ntp7768
Rp7769
(dp7770
g7
g258
sg9
g29
sbag1
(g2
g3
Ntp7771
Rp7772
(dp7773
g7
g41
sg9
g19
sbag1
(g2
g3
Ntp7774
Rp7775
(dp7776
g7
S'EOF'
p7777
sg9
g7777
sba.